
stdlib/pervasives.o:     file format elf64-x86-64


Disassembly of section .text:

0000000000000000 <camlPervasives__loop_1150>:
       0:	48 83 ec 08          	sub    $0x8,%rsp
       4:	48 8b 7b 18          	mov    0x18(%rbx),%rdi
       8:	48 39 f8             	cmp    %rdi,%rax
       b:	7c 17                	jl     24 <camlPervasives__loop_1150+0x24>
       d:	48 8b 3d 00 00 00 00 	mov    0x0(%rip),%rdi        # 14 <camlPervasives__loop_1150+0x14>
			10: R_X86_64_GOTPCREL	camlPervasives__16-0x4
      14:	48 8b 43 10          	mov    0x10(%rbx),%rax
      18:	48 89 fb             	mov    %rdi,%rbx
      1b:	48 83 c4 08          	add    $0x8,%rsp
      1f:	e9 00 00 00 00       	jmpq   24 <camlPervasives__loop_1150+0x24>
			20: R_X86_64_PLT32	camlPervasives__$5e_1118-0x4
      24:	48 8b 7b 10          	mov    0x10(%rbx),%rdi
      28:	48 89 c6             	mov    %rax,%rsi
      2b:	48 d1 fe             	sar    %rsi
      2e:	48 ba ff ff ff ff ff 	mov    $0x3ffffffffff,%rdx
      35:	03 00 00 
      38:	48 8b 4f f8          	mov    -0x8(%rdi),%rcx
      3c:	48 21 d1             	and    %rdx,%rcx
      3f:	48 c1 e9 0a          	shr    $0xa,%rcx
      43:	48 8d 14 cd ff ff ff 	lea    -0x1(,%rcx,8),%rdx
      4a:	ff 
      4b:	48 0f b6 0c 17       	movzbq (%rdi,%rdx,1),%rcx
      50:	48 29 ca             	sub    %rcx,%rdx
      53:	48 39 f2             	cmp    %rsi,%rdx
      56:	76 31                	jbe    89 <camlPervasives__loop_1150+0x89>
      58:	48 0f b6 3c 37       	movzbq (%rdi,%rsi,1),%rdi
      5d:	48 8d 7c 3f 01       	lea    0x1(%rdi,%rdi,1),%rdi
      62:	48 83 ff 61          	cmp    $0x61,%rdi
      66:	7c 08                	jl     70 <camlPervasives__loop_1150+0x70>
      68:	48 83 ff 75          	cmp    $0x75,%rdi
      6c:	7c 12                	jl     80 <camlPervasives__loop_1150+0x80>
      6e:	eb 06                	jmp    76 <camlPervasives__loop_1150+0x76>
      70:	48 83 ff 5b          	cmp    $0x5b,%rdi
      74:	74 0a                	je     80 <camlPervasives__loop_1150+0x80>
      76:	48 8b 43 10          	mov    0x10(%rbx),%rax
      7a:	48 83 c4 08          	add    $0x8,%rsp
      7e:	c3                   	retq   
      7f:	90                   	nop
      80:	48 83 c0 02          	add    $0x2,%rax
      84:	e9 7b ff ff ff       	jmpq   4 <camlPervasives__loop_1150+0x4>
      89:	e8 00 00 00 00       	callq  8e <camlPervasives__loop_1150+0x8e>
			8a: R_X86_64_PLT32	caml_ml_array_bound_error-0x4
      8e:	66 90                	xchg   %ax,%ax

0000000000000090 <camlPervasives__iter_1189>:
      90:	48 83 ec 08          	sub    $0x8,%rsp
      94:	48 83 f8 01          	cmp    $0x1,%rax
      98:	74 3e                	je     d8 <camlPervasives__iter_1189+0x48>
      9a:	48 89 04 24          	mov    %rax,(%rsp)
      9e:	e8 05 00 00 00       	callq  a8 <camlPervasives__iter_1189+0x18>
      a3:	eb 27                	jmp    cc <camlPervasives__iter_1189+0x3c>
      a5:	0f 1f 00             	nopl   (%rax)
      a8:	41 56                	push   %r14
      aa:	49 89 e6             	mov    %rsp,%r14
      ad:	48 8b 38             	mov    (%rax),%rdi
      b0:	48 8b 05 00 00 00 00 	mov    0x0(%rip),%rax        # b7 <camlPervasives__iter_1189+0x27>
			b3: R_X86_64_GOTPCREL	caml_ml_flush-0x4
      b7:	e8 00 00 00 00       	callq  bc <camlPervasives__iter_1189+0x2c>
			b8: R_X86_64_PLT32	caml_c_call-0x4
      bc:	4c 8b 1d 00 00 00 00 	mov    0x0(%rip),%r11        # c3 <camlPervasives__iter_1189+0x33>
			bf: R_X86_64_GOTPCREL	caml_young_ptr-0x4
      c3:	4d 8b 3b             	mov    (%r11),%r15
      c6:	41 5e                	pop    %r14
      c8:	48 83 c4 08          	add    $0x8,%rsp
      cc:	48 8b 04 24          	mov    (%rsp),%rax
      d0:	48 8b 40 08          	mov    0x8(%rax),%rax
      d4:	eb be                	jmp    94 <camlPervasives__iter_1189+0x4>
      d6:	66 90                	xchg   %ax,%ax
      d8:	48 c7 c0 01 00 00 00 	mov    $0x1,%rax
      df:	48 83 c4 08          	add    $0x8,%rsp
      e3:	c3                   	retq   
      e4:	66 66 66 2e 0f 1f 84 	data32 data32 nopw %cs:0x0(%rax,%rax,1)
      eb:	00 00 00 00 00 

00000000000000f0 <camlPervasives__build_result_1259>:
      f0:	48 83 ec 08          	sub    $0x8,%rsp
      f4:	49 89 c2             	mov    %rax,%r10
      f7:	48 83 ff 01          	cmp    $0x1,%rdi
      fb:	74 5f                	je     15c <camlPervasives__build_result_1259+0x6c>
      fd:	48 89 3c 24          	mov    %rdi,(%rsp)
     101:	48 8b 3f             	mov    (%rdi),%rdi
     104:	48 b8 ff ff ff ff ff 	mov    $0x3ffffffffff,%rax
     10b:	03 00 00 
     10e:	48 8b 77 f8          	mov    -0x8(%rdi),%rsi
     112:	48 21 c6             	and    %rax,%rsi
     115:	48 c1 ee 0a          	shr    $0xa,%rsi
     119:	48 8d 04 f5 ff ff ff 	lea    -0x1(,%rsi,8),%rax
     120:	ff 
     121:	48 0f b6 34 07       	movzbq (%rdi,%rax,1),%rsi
     126:	48 29 f0             	sub    %rsi,%rax
     129:	4c 8d 64 00 01       	lea    0x1(%rax,%rax,1),%r12
     12e:	48 89 d9             	mov    %rbx,%rcx
     131:	4c 29 e1             	sub    %r12,%rcx
     134:	48 ff c1             	inc    %rcx
     137:	48 c7 c6 01 00 00 00 	mov    $0x1,%rsi
     13e:	4c 89 d2             	mov    %r10,%rdx
     141:	4d 89 e0             	mov    %r12,%r8
     144:	e8 00 00 00 00       	callq  149 <camlPervasives__build_result_1259+0x59>
			145: R_X86_64_PLT32	caml_blit_string-0x4
     149:	48 8b 04 24          	mov    (%rsp),%rax
     14d:	48 8b 78 08          	mov    0x8(%rax),%rdi
     151:	4c 29 e3             	sub    %r12,%rbx
     154:	48 ff c3             	inc    %rbx
     157:	4c 89 d0             	mov    %r10,%rax
     15a:	eb 98                	jmp    f4 <camlPervasives__build_result_1259+0x4>
     15c:	4c 89 d0             	mov    %r10,%rax
     15f:	48 83 c4 08          	add    $0x8,%rsp
     163:	c3                   	retq   
     164:	66 66 66 2e 0f 1f 84 	data32 data32 nopw %cs:0x0(%rax,%rax,1)
     16b:	00 00 00 00 00 

0000000000000170 <camlPervasives__scan_1265>:
     170:	48 83 ec 28          	sub    $0x28,%rsp
     174:	48 89 44 24 20       	mov    %rax,0x20(%rsp)
     179:	48 89 5c 24 18       	mov    %rbx,0x18(%rsp)
     17e:	48 89 7c 24 08       	mov    %rdi,0x8(%rsp)
     183:	48 8b 7f 18          	mov    0x18(%rdi),%rdi
     187:	48 8b 05 00 00 00 00 	mov    0x0(%rip),%rax        # 18e <camlPervasives__scan_1265+0x1e>
			18a: R_X86_64_GOTPCREL	caml_ml_input_scan_line-0x4
     18e:	e8 00 00 00 00       	callq  193 <camlPervasives__scan_1265+0x23>
			18f: R_X86_64_PLT32	caml_c_call-0x4
     193:	4c 8b 1d 00 00 00 00 	mov    0x0(%rip),%r11        # 19a <camlPervasives__scan_1265+0x2a>
			196: R_X86_64_GOTPCREL	caml_young_ptr-0x4
     19a:	4d 8b 3b             	mov    (%r11),%r15
     19d:	48 83 f8 01          	cmp    $0x1,%rax
     1a1:	75 4d                	jne    1f0 <camlPervasives__scan_1265+0x80>
     1a3:	48 8b 44 24 20       	mov    0x20(%rsp),%rax
     1a8:	48 83 f8 01          	cmp    $0x1,%rax
     1ac:	74 36                	je     1e4 <camlPervasives__scan_1265+0x74>
     1ae:	48 89 44 24 20       	mov    %rax,0x20(%rsp)
     1b3:	48 8b 7c 24 18       	mov    0x18(%rsp),%rdi
     1b8:	48 8b 05 00 00 00 00 	mov    0x0(%rip),%rax        # 1bf <camlPervasives__scan_1265+0x4f>
			1bb: R_X86_64_GOTPCREL	caml_create_string-0x4
     1bf:	e8 00 00 00 00       	callq  1c4 <camlPervasives__scan_1265+0x54>
			1c0: R_X86_64_PLT32	caml_c_call-0x4
     1c4:	4c 8b 1d 00 00 00 00 	mov    0x0(%rip),%r11        # 1cb <camlPervasives__scan_1265+0x5b>
			1c7: R_X86_64_GOTPCREL	caml_young_ptr-0x4
     1cb:	4d 8b 3b             	mov    (%r11),%r15
     1ce:	48 8b 5c 24 18       	mov    0x18(%rsp),%rbx
     1d3:	48 8b 7c 24 20       	mov    0x20(%rsp),%rdi
     1d8:	48 83 c4 28          	add    $0x28,%rsp
     1dc:	e9 00 00 00 00       	jmpq   1e1 <camlPervasives__scan_1265+0x71>
			1dd: R_X86_64_PLT32	camlPervasives__build_result_1259-0x4
     1e1:	0f 1f 00             	nopl   (%rax)
     1e4:	48 8b 05 00 00 00 00 	mov    0x0(%rip),%rax        # 1eb <camlPervasives__scan_1265+0x7b>
			1e7: R_X86_64_GOTPCREL	caml_exn_End_of_file-0x4
     1eb:	e8 00 00 00 00       	callq  1f0 <camlPervasives__scan_1265+0x80>
			1ec: R_X86_64_PLT32	caml_raise_exn-0x4
     1f0:	48 89 44 24 10       	mov    %rax,0x10(%rsp)
     1f5:	48 83 f8 01          	cmp    $0x1,%rax
     1f9:	0f 8e f9 00 00 00    	jle    2f8 <camlPervasives__scan_1265+0x188>
     1ff:	48 83 c0 fe          	add    $0xfffffffffffffffe,%rax
     203:	48 89 c7             	mov    %rax,%rdi
     206:	48 8b 05 00 00 00 00 	mov    0x0(%rip),%rax        # 20d <camlPervasives__scan_1265+0x9d>
			209: R_X86_64_GOTPCREL	caml_create_string-0x4
     20d:	e8 00 00 00 00       	callq  212 <camlPervasives__scan_1265+0xa2>
			20e: R_X86_64_PLT32	caml_c_call-0x4
     212:	4c 8b 1d 00 00 00 00 	mov    0x0(%rip),%r11        # 219 <camlPervasives__scan_1265+0xa9>
			215: R_X86_64_GOTPCREL	caml_young_ptr-0x4
     219:	4d 8b 3b             	mov    (%r11),%r15
     21c:	48 89 04 24          	mov    %rax,(%rsp)
     220:	48 8b 4c 24 10       	mov    0x10(%rsp),%rcx
     225:	48 83 c1 fe          	add    $0xfffffffffffffffe,%rcx
     229:	48 c7 c2 01 00 00 00 	mov    $0x1,%rdx
     230:	48 8b 5c 24 08       	mov    0x8(%rsp),%rbx
     235:	48 8b 7b 18          	mov    0x18(%rbx),%rdi
     239:	48 89 c6             	mov    %rax,%rsi
     23c:	48 8b 05 00 00 00 00 	mov    0x0(%rip),%rax        # 243 <camlPervasives__scan_1265+0xd3>
			23f: R_X86_64_GOTPCREL	caml_ml_input-0x4
     243:	e8 00 00 00 00       	callq  248 <camlPervasives__scan_1265+0xd8>
			244: R_X86_64_PLT32	caml_c_call-0x4
     248:	4c 8b 1d 00 00 00 00 	mov    0x0(%rip),%r11        # 24f <camlPervasives__scan_1265+0xdf>
			24b: R_X86_64_GOTPCREL	caml_young_ptr-0x4
     24f:	4d 8b 3b             	mov    (%r11),%r15
     252:	48 8b 44 24 08       	mov    0x8(%rsp),%rax
     257:	48 8b 78 18          	mov    0x18(%rax),%rdi
     25b:	48 8b 05 00 00 00 00 	mov    0x0(%rip),%rax        # 262 <camlPervasives__scan_1265+0xf2>
			25e: R_X86_64_GOTPCREL	caml_ml_input_char-0x4
     262:	e8 00 00 00 00       	callq  267 <camlPervasives__scan_1265+0xf7>
			263: R_X86_64_PLT32	caml_c_call-0x4
     267:	4c 8b 1d 00 00 00 00 	mov    0x0(%rip),%r11        # 26e <camlPervasives__scan_1265+0xfe>
			26a: R_X86_64_GOTPCREL	caml_young_ptr-0x4
     26e:	4d 8b 3b             	mov    (%r11),%r15
     271:	48 8b 5c 24 20       	mov    0x20(%rsp),%rbx
     276:	48 83 fb 01          	cmp    $0x1,%rbx
     27a:	74 70                	je     2ec <camlPervasives__scan_1265+0x17c>
     27c:	48 8b 44 24 10       	mov    0x10(%rsp),%rax
     281:	48 8b 7c 24 18       	mov    0x18(%rsp),%rdi
     286:	48 8d 7c 07 fd       	lea    -0x3(%rdi,%rax,1),%rdi
     28b:	48 89 7c 24 08       	mov    %rdi,0x8(%rsp)
     290:	49 83 ef 18          	sub    $0x18,%r15
     294:	48 8b 05 00 00 00 00 	mov    0x0(%rip),%rax        # 29b <camlPervasives__scan_1265+0x12b>
			297: R_X86_64_GOTPCREL	caml_young_limit-0x4
     29b:	4c 3b 38             	cmp    (%rax),%r15
     29e:	0f 82 fd 00 00 00    	jb     3a1 <camlPervasives__scan_1265+0x231>
     2a4:	49 8d 47 08          	lea    0x8(%r15),%rax
     2a8:	48 89 44 24 10       	mov    %rax,0x10(%rsp)
     2ad:	48 c7 40 f8 00 08 00 	movq   $0x800,-0x8(%rax)
     2b4:	00 
     2b5:	48 8b 34 24          	mov    (%rsp),%rsi
     2b9:	48 89 30             	mov    %rsi,(%rax)
     2bc:	48 89 58 08          	mov    %rbx,0x8(%rax)
     2c0:	48 8b 05 00 00 00 00 	mov    0x0(%rip),%rax        # 2c7 <camlPervasives__scan_1265+0x157>
			2c3: R_X86_64_GOTPCREL	caml_create_string-0x4
     2c7:	e8 00 00 00 00       	callq  2cc <camlPervasives__scan_1265+0x15c>
			2c8: R_X86_64_PLT32	caml_c_call-0x4
     2cc:	4c 8b 1d 00 00 00 00 	mov    0x0(%rip),%r11        # 2d3 <camlPervasives__scan_1265+0x163>
			2cf: R_X86_64_GOTPCREL	caml_young_ptr-0x4
     2d3:	4d 8b 3b             	mov    (%r11),%r15
     2d6:	48 8b 5c 24 08       	mov    0x8(%rsp),%rbx
     2db:	48 8b 7c 24 10       	mov    0x10(%rsp),%rdi
     2e0:	48 83 c4 28          	add    $0x28,%rsp
     2e4:	e9 00 00 00 00       	jmpq   2e9 <camlPervasives__scan_1265+0x179>
			2e5: R_X86_64_PLT32	camlPervasives__build_result_1259-0x4
     2e9:	0f 1f 00             	nopl   (%rax)
     2ec:	48 8b 04 24          	mov    (%rsp),%rax
     2f0:	48 83 c4 28          	add    $0x28,%rsp
     2f4:	c3                   	retq   
     2f5:	0f 1f 00             	nopl   (%rax)
     2f8:	48 c7 c7 02 00 00 00 	mov    $0x2,%rdi
     2ff:	48 29 c7             	sub    %rax,%rdi
     302:	48 8b 05 00 00 00 00 	mov    0x0(%rip),%rax        # 309 <camlPervasives__scan_1265+0x199>
			305: R_X86_64_GOTPCREL	caml_create_string-0x4
     309:	e8 00 00 00 00       	callq  30e <camlPervasives__scan_1265+0x19e>
			30a: R_X86_64_PLT32	caml_c_call-0x4
     30e:	4c 8b 1d 00 00 00 00 	mov    0x0(%rip),%r11        # 315 <camlPervasives__scan_1265+0x1a5>
			311: R_X86_64_GOTPCREL	caml_young_ptr-0x4
     315:	4d 8b 3b             	mov    (%r11),%r15
     318:	48 89 04 24          	mov    %rax,(%rsp)
     31c:	48 c7 c1 02 00 00 00 	mov    $0x2,%rcx
     323:	48 8b 5c 24 10       	mov    0x10(%rsp),%rbx
     328:	48 29 d9             	sub    %rbx,%rcx
     32b:	48 c7 c2 01 00 00 00 	mov    $0x1,%rdx
     332:	48 8b 5c 24 08       	mov    0x8(%rsp),%rbx
     337:	48 8b 7b 18          	mov    0x18(%rbx),%rdi
     33b:	48 89 c6             	mov    %rax,%rsi
     33e:	48 8b 05 00 00 00 00 	mov    0x0(%rip),%rax        # 345 <camlPervasives__scan_1265+0x1d5>
			341: R_X86_64_GOTPCREL	caml_ml_input-0x4
     345:	e8 00 00 00 00       	callq  34a <camlPervasives__scan_1265+0x1da>
			346: R_X86_64_PLT32	caml_c_call-0x4
     34a:	4c 8b 1d 00 00 00 00 	mov    0x0(%rip),%r11        # 351 <camlPervasives__scan_1265+0x1e1>
			34d: R_X86_64_GOTPCREL	caml_young_ptr-0x4
     351:	4d 8b 3b             	mov    (%r11),%r15
     354:	49 83 ef 18          	sub    $0x18,%r15
     358:	48 8b 05 00 00 00 00 	mov    0x0(%rip),%rax        # 35f <camlPervasives__scan_1265+0x1ef>
			35b: R_X86_64_GOTPCREL	caml_young_limit-0x4
     35f:	4c 3b 38             	cmp    (%rax),%r15
     362:	72 36                	jb     39a <camlPervasives__scan_1265+0x22a>
     364:	49 8d 47 08          	lea    0x8(%r15),%rax
     368:	48 c7 40 f8 00 08 00 	movq   $0x800,-0x8(%rax)
     36f:	00 
     370:	48 8b 1c 24          	mov    (%rsp),%rbx
     374:	48 89 18             	mov    %rbx,(%rax)
     377:	48 8b 5c 24 20       	mov    0x20(%rsp),%rbx
     37c:	48 89 58 08          	mov    %rbx,0x8(%rax)
     380:	48 8b 5c 24 18       	mov    0x18(%rsp),%rbx
     385:	48 8b 7c 24 10       	mov    0x10(%rsp),%rdi
     38a:	48 29 fb             	sub    %rdi,%rbx
     38d:	48 ff c3             	inc    %rbx
     390:	48 8b 7c 24 08       	mov    0x8(%rsp),%rdi
     395:	e9 da fd ff ff       	jmpq   174 <camlPervasives__scan_1265+0x4>
     39a:	e8 00 00 00 00       	callq  39f <camlPervasives__scan_1265+0x22f>
			39b: R_X86_64_PLT32	caml_call_gc-0x4
     39f:	eb b3                	jmp    354 <camlPervasives__scan_1265+0x1e4>
     3a1:	e8 00 00 00 00       	callq  3a6 <camlPervasives__scan_1265+0x236>
			3a2: R_X86_64_PLT32	caml_call_gc-0x4
     3a6:	e9 e5 fe ff ff       	jmpq   290 <camlPervasives__scan_1265+0x120>
     3ab:	0f 1f 44 00 00       	nopl   0x0(%rax,%rax,1)

00000000000003b0 <camlPervasives__fun_1508>:
     3b0:	48 83 ec 08          	sub    $0x8,%rsp
     3b4:	48 89 1c 24          	mov    %rbx,(%rsp)
     3b8:	48 8b 5b 10          	mov    0x10(%rbx),%rbx
     3bc:	48 c7 c0 01 00 00 00 	mov    $0x1,%rax
     3c3:	48 8b 3b             	mov    (%rbx),%rdi
     3c6:	ff d7                	callq  *%rdi
     3c8:	48 8b 04 24          	mov    (%rsp),%rax
     3cc:	48 8b 58 18          	mov    0x18(%rax),%rbx
     3d0:	48 c7 c0 01 00 00 00 	mov    $0x1,%rax
     3d7:	48 8b 3b             	mov    (%rbx),%rdi
     3da:	48 83 c4 08          	add    $0x8,%rsp
     3de:	ff e7                	jmpq   *%rdi

00000000000003e0 <camlPervasives__fun_1395>:
     3e0:	48 83 ec 08          	sub    $0x8,%rsp
     3e4:	48 89 c7             	mov    %rax,%rdi
     3e7:	48 89 de             	mov    %rbx,%rsi
     3ea:	48 8b 05 00 00 00 00 	mov    0x0(%rip),%rax        # 3f1 <camlPervasives__fun_1395+0x11>
			3ed: R_X86_64_GOTPCREL	caml_ml_set_binary_mode-0x4
     3f1:	e8 00 00 00 00       	callq  3f6 <camlPervasives__fun_1395+0x16>
			3f2: R_X86_64_PLT32	caml_c_call-0x4
     3f6:	4c 8b 1d 00 00 00 00 	mov    0x0(%rip),%r11        # 3fd <camlPervasives__fun_1395+0x1d>
			3f9: R_X86_64_GOTPCREL	caml_young_ptr-0x4
     3fd:	4d 8b 3b             	mov    (%r11),%r15
     400:	48 83 c4 08          	add    $0x8,%rsp
     404:	c3                   	retq   
     405:	66 66 2e 0f 1f 84 00 	data32 nopw %cs:0x0(%rax,%rax,1)
     40c:	00 00 00 00 

0000000000000410 <camlPervasives__fun_1397>:
     410:	48 83 ec 08          	sub    $0x8,%rsp
     414:	48 89 c7             	mov    %rax,%rdi
     417:	48 8b 05 00 00 00 00 	mov    0x0(%rip),%rax        # 41e <camlPervasives__fun_1397+0xe>
			41a: R_X86_64_GOTPCREL	caml_ml_close_channel-0x4
     41e:	e8 00 00 00 00       	callq  423 <camlPervasives__fun_1397+0x13>
			41f: R_X86_64_PLT32	caml_c_call-0x4
     423:	4c 8b 1d 00 00 00 00 	mov    0x0(%rip),%r11        # 42a <camlPervasives__fun_1397+0x1a>
			426: R_X86_64_GOTPCREL	caml_young_ptr-0x4
     42a:	4d 8b 3b             	mov    (%r11),%r15
     42d:	48 83 c4 08          	add    $0x8,%rsp
     431:	c3                   	retq   
     432:	66 66 66 66 66 2e 0f 	data32 data32 data32 data32 nopw %cs:0x0(%rax,%rax,1)
     439:	1f 84 00 00 00 00 00 

0000000000000440 <camlPervasives__fun_1399>:
     440:	48 83 ec 08          	sub    $0x8,%rsp
     444:	48 89 c7             	mov    %rax,%rdi
     447:	48 8b 05 00 00 00 00 	mov    0x0(%rip),%rax        # 44e <camlPervasives__fun_1399+0xe>
			44a: R_X86_64_GOTPCREL	caml_ml_channel_size-0x4
     44e:	e8 00 00 00 00       	callq  453 <camlPervasives__fun_1399+0x13>
			44f: R_X86_64_PLT32	caml_c_call-0x4
     453:	4c 8b 1d 00 00 00 00 	mov    0x0(%rip),%r11        # 45a <camlPervasives__fun_1399+0x1a>
			456: R_X86_64_GOTPCREL	caml_young_ptr-0x4
     45a:	4d 8b 3b             	mov    (%r11),%r15
     45d:	48 83 c4 08          	add    $0x8,%rsp
     461:	c3                   	retq   
     462:	66 66 66 66 66 2e 0f 	data32 data32 data32 data32 nopw %cs:0x0(%rax,%rax,1)
     469:	1f 84 00 00 00 00 00 

0000000000000470 <camlPervasives__fun_1401>:
     470:	48 83 ec 08          	sub    $0x8,%rsp
     474:	48 89 c7             	mov    %rax,%rdi
     477:	48 8b 05 00 00 00 00 	mov    0x0(%rip),%rax        # 47e <camlPervasives__fun_1401+0xe>
			47a: R_X86_64_GOTPCREL	caml_ml_pos_in-0x4
     47e:	e8 00 00 00 00       	callq  483 <camlPervasives__fun_1401+0x13>
			47f: R_X86_64_PLT32	caml_c_call-0x4
     483:	4c 8b 1d 00 00 00 00 	mov    0x0(%rip),%r11        # 48a <camlPervasives__fun_1401+0x1a>
			486: R_X86_64_GOTPCREL	caml_young_ptr-0x4
     48a:	4d 8b 3b             	mov    (%r11),%r15
     48d:	48 83 c4 08          	add    $0x8,%rsp
     491:	c3                   	retq   
     492:	66 66 66 66 66 2e 0f 	data32 data32 data32 data32 nopw %cs:0x0(%rax,%rax,1)
     499:	1f 84 00 00 00 00 00 

00000000000004a0 <camlPervasives__fun_1403>:
     4a0:	48 83 ec 08          	sub    $0x8,%rsp
     4a4:	48 89 c7             	mov    %rax,%rdi
     4a7:	48 89 de             	mov    %rbx,%rsi
     4aa:	48 8b 05 00 00 00 00 	mov    0x0(%rip),%rax        # 4b1 <camlPervasives__fun_1403+0x11>
			4ad: R_X86_64_GOTPCREL	caml_ml_seek_in-0x4
     4b1:	e8 00 00 00 00       	callq  4b6 <camlPervasives__fun_1403+0x16>
			4b2: R_X86_64_PLT32	caml_c_call-0x4
     4b6:	4c 8b 1d 00 00 00 00 	mov    0x0(%rip),%r11        # 4bd <camlPervasives__fun_1403+0x1d>
			4b9: R_X86_64_GOTPCREL	caml_young_ptr-0x4
     4bd:	4d 8b 3b             	mov    (%r11),%r15
     4c0:	48 83 c4 08          	add    $0x8,%rsp
     4c4:	c3                   	retq   
     4c5:	66 66 2e 0f 1f 84 00 	data32 nopw %cs:0x0(%rax,%rax,1)
     4cc:	00 00 00 00 

00000000000004d0 <camlPervasives__fun_1405>:
     4d0:	48 83 ec 08          	sub    $0x8,%rsp
     4d4:	48 89 c7             	mov    %rax,%rdi
     4d7:	48 8b 05 00 00 00 00 	mov    0x0(%rip),%rax        # 4de <camlPervasives__fun_1405+0xe>
			4da: R_X86_64_GOTPCREL	caml_input_value-0x4
     4de:	e8 00 00 00 00       	callq  4e3 <camlPervasives__fun_1405+0x13>
			4df: R_X86_64_PLT32	caml_c_call-0x4
     4e3:	4c 8b 1d 00 00 00 00 	mov    0x0(%rip),%r11        # 4ea <camlPervasives__fun_1405+0x1a>
			4e6: R_X86_64_GOTPCREL	caml_young_ptr-0x4
     4ea:	4d 8b 3b             	mov    (%r11),%r15
     4ed:	48 83 c4 08          	add    $0x8,%rsp
     4f1:	c3                   	retq   
     4f2:	66 66 66 66 66 2e 0f 	data32 data32 data32 data32 nopw %cs:0x0(%rax,%rax,1)
     4f9:	1f 84 00 00 00 00 00 

0000000000000500 <camlPervasives__fun_1407>:
     500:	48 83 ec 08          	sub    $0x8,%rsp
     504:	48 89 c7             	mov    %rax,%rdi
     507:	48 8b 05 00 00 00 00 	mov    0x0(%rip),%rax        # 50e <camlPervasives__fun_1407+0xe>
			50a: R_X86_64_GOTPCREL	caml_ml_input_int-0x4
     50e:	e8 00 00 00 00       	callq  513 <camlPervasives__fun_1407+0x13>
			50f: R_X86_64_PLT32	caml_c_call-0x4
     513:	4c 8b 1d 00 00 00 00 	mov    0x0(%rip),%r11        # 51a <camlPervasives__fun_1407+0x1a>
			516: R_X86_64_GOTPCREL	caml_young_ptr-0x4
     51a:	4d 8b 3b             	mov    (%r11),%r15
     51d:	48 83 c4 08          	add    $0x8,%rsp
     521:	c3                   	retq   
     522:	66 66 66 66 66 2e 0f 	data32 data32 data32 data32 nopw %cs:0x0(%rax,%rax,1)
     529:	1f 84 00 00 00 00 00 

0000000000000530 <camlPervasives__fun_1409>:
     530:	48 83 ec 08          	sub    $0x8,%rsp
     534:	48 89 c7             	mov    %rax,%rdi
     537:	48 8b 05 00 00 00 00 	mov    0x0(%rip),%rax        # 53e <camlPervasives__fun_1409+0xe>
			53a: R_X86_64_GOTPCREL	caml_ml_input_char-0x4
     53e:	e8 00 00 00 00       	callq  543 <camlPervasives__fun_1409+0x13>
			53f: R_X86_64_PLT32	caml_c_call-0x4
     543:	4c 8b 1d 00 00 00 00 	mov    0x0(%rip),%r11        # 54a <camlPervasives__fun_1409+0x1a>
			546: R_X86_64_GOTPCREL	caml_young_ptr-0x4
     54a:	4d 8b 3b             	mov    (%r11),%r15
     54d:	48 83 c4 08          	add    $0x8,%rsp
     551:	c3                   	retq   
     552:	66 66 66 66 66 2e 0f 	data32 data32 data32 data32 nopw %cs:0x0(%rax,%rax,1)
     559:	1f 84 00 00 00 00 00 

0000000000000560 <camlPervasives__fun_1411>:
     560:	48 83 ec 08          	sub    $0x8,%rsp
     564:	48 89 c7             	mov    %rax,%rdi
     567:	48 8b 05 00 00 00 00 	mov    0x0(%rip),%rax        # 56e <camlPervasives__fun_1411+0xe>
			56a: R_X86_64_GOTPCREL	caml_ml_input_char-0x4
     56e:	e8 00 00 00 00       	callq  573 <camlPervasives__fun_1411+0x13>
			56f: R_X86_64_PLT32	caml_c_call-0x4
     573:	4c 8b 1d 00 00 00 00 	mov    0x0(%rip),%r11        # 57a <camlPervasives__fun_1411+0x1a>
			576: R_X86_64_GOTPCREL	caml_young_ptr-0x4
     57a:	4d 8b 3b             	mov    (%r11),%r15
     57d:	48 83 c4 08          	add    $0x8,%rsp
     581:	c3                   	retq   
     582:	66 66 66 66 66 2e 0f 	data32 data32 data32 data32 nopw %cs:0x0(%rax,%rax,1)
     589:	1f 84 00 00 00 00 00 

0000000000000590 <camlPervasives__fun_1413>:
     590:	48 83 ec 08          	sub    $0x8,%rsp
     594:	48 89 c7             	mov    %rax,%rdi
     597:	48 89 de             	mov    %rbx,%rsi
     59a:	48 8b 05 00 00 00 00 	mov    0x0(%rip),%rax        # 5a1 <camlPervasives__fun_1413+0x11>
			59d: R_X86_64_GOTPCREL	caml_ml_set_binary_mode-0x4
     5a1:	e8 00 00 00 00       	callq  5a6 <camlPervasives__fun_1413+0x16>
			5a2: R_X86_64_PLT32	caml_c_call-0x4
     5a6:	4c 8b 1d 00 00 00 00 	mov    0x0(%rip),%r11        # 5ad <camlPervasives__fun_1413+0x1d>
			5a9: R_X86_64_GOTPCREL	caml_young_ptr-0x4
     5ad:	4d 8b 3b             	mov    (%r11),%r15
     5b0:	48 83 c4 08          	add    $0x8,%rsp
     5b4:	c3                   	retq   
     5b5:	66 66 2e 0f 1f 84 00 	data32 nopw %cs:0x0(%rax,%rax,1)
     5bc:	00 00 00 00 

00000000000005c0 <camlPervasives__fun_1415>:
     5c0:	48 83 ec 08          	sub    $0x8,%rsp
     5c4:	48 89 c7             	mov    %rax,%rdi
     5c7:	48 8b 05 00 00 00 00 	mov    0x0(%rip),%rax        # 5ce <camlPervasives__fun_1415+0xe>
			5ca: R_X86_64_GOTPCREL	caml_ml_channel_size-0x4
     5ce:	e8 00 00 00 00       	callq  5d3 <camlPervasives__fun_1415+0x13>
			5cf: R_X86_64_PLT32	caml_c_call-0x4
     5d3:	4c 8b 1d 00 00 00 00 	mov    0x0(%rip),%r11        # 5da <camlPervasives__fun_1415+0x1a>
			5d6: R_X86_64_GOTPCREL	caml_young_ptr-0x4
     5da:	4d 8b 3b             	mov    (%r11),%r15
     5dd:	48 83 c4 08          	add    $0x8,%rsp
     5e1:	c3                   	retq   
     5e2:	66 66 66 66 66 2e 0f 	data32 data32 data32 data32 nopw %cs:0x0(%rax,%rax,1)
     5e9:	1f 84 00 00 00 00 00 

00000000000005f0 <camlPervasives__fun_1417>:
     5f0:	48 83 ec 08          	sub    $0x8,%rsp
     5f4:	48 89 c7             	mov    %rax,%rdi
     5f7:	48 8b 05 00 00 00 00 	mov    0x0(%rip),%rax        # 5fe <camlPervasives__fun_1417+0xe>
			5fa: R_X86_64_GOTPCREL	caml_ml_pos_out-0x4
     5fe:	e8 00 00 00 00       	callq  603 <camlPervasives__fun_1417+0x13>
			5ff: R_X86_64_PLT32	caml_c_call-0x4
     603:	4c 8b 1d 00 00 00 00 	mov    0x0(%rip),%r11        # 60a <camlPervasives__fun_1417+0x1a>
			606: R_X86_64_GOTPCREL	caml_young_ptr-0x4
     60a:	4d 8b 3b             	mov    (%r11),%r15
     60d:	48 83 c4 08          	add    $0x8,%rsp
     611:	c3                   	retq   
     612:	66 66 66 66 66 2e 0f 	data32 data32 data32 data32 nopw %cs:0x0(%rax,%rax,1)
     619:	1f 84 00 00 00 00 00 

0000000000000620 <camlPervasives__fun_1419>:
     620:	48 83 ec 08          	sub    $0x8,%rsp
     624:	48 89 c7             	mov    %rax,%rdi
     627:	48 89 de             	mov    %rbx,%rsi
     62a:	48 8b 05 00 00 00 00 	mov    0x0(%rip),%rax        # 631 <camlPervasives__fun_1419+0x11>
			62d: R_X86_64_GOTPCREL	caml_ml_seek_out-0x4
     631:	e8 00 00 00 00       	callq  636 <camlPervasives__fun_1419+0x16>
			632: R_X86_64_PLT32	caml_c_call-0x4
     636:	4c 8b 1d 00 00 00 00 	mov    0x0(%rip),%r11        # 63d <camlPervasives__fun_1419+0x1d>
			639: R_X86_64_GOTPCREL	caml_young_ptr-0x4
     63d:	4d 8b 3b             	mov    (%r11),%r15
     640:	48 83 c4 08          	add    $0x8,%rsp
     644:	c3                   	retq   
     645:	66 66 2e 0f 1f 84 00 	data32 nopw %cs:0x0(%rax,%rax,1)
     64c:	00 00 00 00 

0000000000000650 <camlPervasives__fun_1421>:
     650:	48 83 ec 08          	sub    $0x8,%rsp
     654:	48 89 c7             	mov    %rax,%rdi
     657:	48 89 de             	mov    %rbx,%rsi
     65a:	48 8b 05 00 00 00 00 	mov    0x0(%rip),%rax        # 661 <camlPervasives__fun_1421+0x11>
			65d: R_X86_64_GOTPCREL	caml_ml_output_int-0x4
     661:	e8 00 00 00 00       	callq  666 <camlPervasives__fun_1421+0x16>
			662: R_X86_64_PLT32	caml_c_call-0x4
     666:	4c 8b 1d 00 00 00 00 	mov    0x0(%rip),%r11        # 66d <camlPervasives__fun_1421+0x1d>
			669: R_X86_64_GOTPCREL	caml_young_ptr-0x4
     66d:	4d 8b 3b             	mov    (%r11),%r15
     670:	48 83 c4 08          	add    $0x8,%rsp
     674:	c3                   	retq   
     675:	66 66 2e 0f 1f 84 00 	data32 nopw %cs:0x0(%rax,%rax,1)
     67c:	00 00 00 00 

0000000000000680 <camlPervasives__fun_1423>:
     680:	48 83 ec 08          	sub    $0x8,%rsp
     684:	48 89 c7             	mov    %rax,%rdi
     687:	48 89 de             	mov    %rbx,%rsi
     68a:	48 8b 05 00 00 00 00 	mov    0x0(%rip),%rax        # 691 <camlPervasives__fun_1423+0x11>
			68d: R_X86_64_GOTPCREL	caml_ml_output_char-0x4
     691:	e8 00 00 00 00       	callq  696 <camlPervasives__fun_1423+0x16>
			692: R_X86_64_PLT32	caml_c_call-0x4
     696:	4c 8b 1d 00 00 00 00 	mov    0x0(%rip),%r11        # 69d <camlPervasives__fun_1423+0x1d>
			699: R_X86_64_GOTPCREL	caml_young_ptr-0x4
     69d:	4d 8b 3b             	mov    (%r11),%r15
     6a0:	48 83 c4 08          	add    $0x8,%rsp
     6a4:	c3                   	retq   
     6a5:	66 66 2e 0f 1f 84 00 	data32 nopw %cs:0x0(%rax,%rax,1)
     6ac:	00 00 00 00 

00000000000006b0 <camlPervasives__fun_1425>:
     6b0:	48 83 ec 08          	sub    $0x8,%rsp
     6b4:	48 89 c7             	mov    %rax,%rdi
     6b7:	48 89 de             	mov    %rbx,%rsi
     6ba:	48 8b 05 00 00 00 00 	mov    0x0(%rip),%rax        # 6c1 <camlPervasives__fun_1425+0x11>
			6bd: R_X86_64_GOTPCREL	caml_ml_output_char-0x4
     6c1:	e8 00 00 00 00       	callq  6c6 <camlPervasives__fun_1425+0x16>
			6c2: R_X86_64_PLT32	caml_c_call-0x4
     6c6:	4c 8b 1d 00 00 00 00 	mov    0x0(%rip),%r11        # 6cd <camlPervasives__fun_1425+0x1d>
			6c9: R_X86_64_GOTPCREL	caml_young_ptr-0x4
     6cd:	4d 8b 3b             	mov    (%r11),%r15
     6d0:	48 83 c4 08          	add    $0x8,%rsp
     6d4:	c3                   	retq   
     6d5:	66 66 2e 0f 1f 84 00 	data32 nopw %cs:0x0(%rax,%rax,1)
     6dc:	00 00 00 00 

00000000000006e0 <camlPervasives__fun_1427>:
     6e0:	48 83 ec 08          	sub    $0x8,%rsp
     6e4:	48 89 c7             	mov    %rax,%rdi
     6e7:	48 8b 05 00 00 00 00 	mov    0x0(%rip),%rax        # 6ee <camlPervasives__fun_1427+0xe>
			6ea: R_X86_64_GOTPCREL	caml_ml_flush-0x4
     6ee:	e8 00 00 00 00       	callq  6f3 <camlPervasives__fun_1427+0x13>
			6ef: R_X86_64_PLT32	caml_c_call-0x4
     6f3:	4c 8b 1d 00 00 00 00 	mov    0x0(%rip),%r11        # 6fa <camlPervasives__fun_1427+0x1a>
			6f6: R_X86_64_GOTPCREL	caml_young_ptr-0x4
     6fa:	4d 8b 3b             	mov    (%r11),%r15
     6fd:	48 83 c4 08          	add    $0x8,%rsp
     701:	c3                   	retq   
     702:	66 66 66 66 66 2e 0f 	data32 data32 data32 data32 nopw %cs:0x0(%rax,%rax,1)
     709:	1f 84 00 00 00 00 00 

0000000000000710 <camlPervasives__failwith_1005>:
     710:	48 83 ec 08          	sub    $0x8,%rsp
     714:	48 89 c3             	mov    %rax,%rbx
     717:	49 83 ef 18          	sub    $0x18,%r15
     71b:	48 8b 05 00 00 00 00 	mov    0x0(%rip),%rax        # 722 <camlPervasives__failwith_1005+0x12>
			71e: R_X86_64_GOTPCREL	caml_young_limit-0x4
     722:	4c 3b 38             	cmp    (%rax),%r15
     725:	72 1f                	jb     746 <camlPervasives__failwith_1005+0x36>
     727:	49 8d 47 08          	lea    0x8(%r15),%rax
     72b:	48 c7 40 f8 00 08 00 	movq   $0x800,-0x8(%rax)
     732:	00 
     733:	48 8b 3d 00 00 00 00 	mov    0x0(%rip),%rdi        # 73a <camlPervasives__failwith_1005+0x2a>
			736: R_X86_64_GOTPCREL	caml_exn_Failure-0x4
     73a:	48 89 38             	mov    %rdi,(%rax)
     73d:	48 89 58 08          	mov    %rbx,0x8(%rax)
     741:	e8 00 00 00 00       	callq  746 <camlPervasives__failwith_1005+0x36>
			742: R_X86_64_PLT32	caml_raise_exn-0x4
     746:	e8 00 00 00 00       	callq  74b <camlPervasives__failwith_1005+0x3b>
			747: R_X86_64_PLT32	caml_call_gc-0x4
     74b:	eb ca                	jmp    717 <camlPervasives__failwith_1005+0x7>
     74d:	0f 1f 00             	nopl   (%rax)

0000000000000750 <camlPervasives__invalid_arg_1007>:
     750:	48 83 ec 08          	sub    $0x8,%rsp
     754:	48 89 c3             	mov    %rax,%rbx
     757:	49 83 ef 18          	sub    $0x18,%r15
     75b:	48 8b 05 00 00 00 00 	mov    0x0(%rip),%rax        # 762 <camlPervasives__invalid_arg_1007+0x12>
			75e: R_X86_64_GOTPCREL	caml_young_limit-0x4
     762:	4c 3b 38             	cmp    (%rax),%r15
     765:	72 1f                	jb     786 <camlPervasives__invalid_arg_1007+0x36>
     767:	49 8d 47 08          	lea    0x8(%r15),%rax
     76b:	48 c7 40 f8 00 08 00 	movq   $0x800,-0x8(%rax)
     772:	00 
     773:	48 8b 3d 00 00 00 00 	mov    0x0(%rip),%rdi        # 77a <camlPervasives__invalid_arg_1007+0x2a>
			776: R_X86_64_GOTPCREL	caml_exn_Invalid_argument-0x4
     77a:	48 89 38             	mov    %rdi,(%rax)
     77d:	48 89 58 08          	mov    %rbx,0x8(%rax)
     781:	e8 00 00 00 00       	callq  786 <camlPervasives__invalid_arg_1007+0x36>
			782: R_X86_64_PLT32	caml_raise_exn-0x4
     786:	e8 00 00 00 00       	callq  78b <camlPervasives__invalid_arg_1007+0x3b>
			787: R_X86_64_PLT32	caml_call_gc-0x4
     78b:	eb ca                	jmp    757 <camlPervasives__invalid_arg_1007+0x7>
     78d:	0f 1f 00             	nopl   (%rax)

0000000000000790 <camlPervasives__min_1027>:
     790:	48 83 ec 18          	sub    $0x18,%rsp
     794:	48 89 44 24 08       	mov    %rax,0x8(%rsp)
     799:	48 89 1c 24          	mov    %rbx,(%rsp)
     79d:	48 89 c7             	mov    %rax,%rdi
     7a0:	48 89 de             	mov    %rbx,%rsi
     7a3:	48 8b 05 00 00 00 00 	mov    0x0(%rip),%rax        # 7aa <camlPervasives__min_1027+0x1a>
			7a6: R_X86_64_GOTPCREL	caml_lessequal-0x4
     7aa:	e8 00 00 00 00       	callq  7af <camlPervasives__min_1027+0x1f>
			7ab: R_X86_64_PLT32	caml_c_call-0x4
     7af:	4c 8b 1d 00 00 00 00 	mov    0x0(%rip),%r11        # 7b6 <camlPervasives__min_1027+0x26>
			7b2: R_X86_64_GOTPCREL	caml_young_ptr-0x4
     7b6:	4d 8b 3b             	mov    (%r11),%r15
     7b9:	48 83 f8 01          	cmp    $0x1,%rax
     7bd:	74 0d                	je     7cc <camlPervasives__min_1027+0x3c>
     7bf:	48 8b 44 24 08       	mov    0x8(%rsp),%rax
     7c4:	48 83 c4 18          	add    $0x18,%rsp
     7c8:	c3                   	retq   
     7c9:	0f 1f 00             	nopl   (%rax)
     7cc:	48 8b 04 24          	mov    (%rsp),%rax
     7d0:	48 83 c4 18          	add    $0x18,%rsp
     7d4:	c3                   	retq   
     7d5:	66 66 2e 0f 1f 84 00 	data32 nopw %cs:0x0(%rax,%rax,1)
     7dc:	00 00 00 00 

00000000000007e0 <camlPervasives__max_1030>:
     7e0:	48 83 ec 18          	sub    $0x18,%rsp
     7e4:	48 89 44 24 08       	mov    %rax,0x8(%rsp)
     7e9:	48 89 1c 24          	mov    %rbx,(%rsp)
     7ed:	48 89 c7             	mov    %rax,%rdi
     7f0:	48 89 de             	mov    %rbx,%rsi
     7f3:	48 8b 05 00 00 00 00 	mov    0x0(%rip),%rax        # 7fa <camlPervasives__max_1030+0x1a>
			7f6: R_X86_64_GOTPCREL	caml_greaterequal-0x4
     7fa:	e8 00 00 00 00       	callq  7ff <camlPervasives__max_1030+0x1f>
			7fb: R_X86_64_PLT32	caml_c_call-0x4
     7ff:	4c 8b 1d 00 00 00 00 	mov    0x0(%rip),%r11        # 806 <camlPervasives__max_1030+0x26>
			802: R_X86_64_GOTPCREL	caml_young_ptr-0x4
     806:	4d 8b 3b             	mov    (%r11),%r15
     809:	48 83 f8 01          	cmp    $0x1,%rax
     80d:	74 0d                	je     81c <camlPervasives__max_1030+0x3c>
     80f:	48 8b 44 24 08       	mov    0x8(%rsp),%rax
     814:	48 83 c4 18          	add    $0x18,%rsp
     818:	c3                   	retq   
     819:	0f 1f 00             	nopl   (%rax)
     81c:	48 8b 04 24          	mov    (%rsp),%rax
     820:	48 83 c4 18          	add    $0x18,%rsp
     824:	c3                   	retq   
     825:	66 66 2e 0f 1f 84 00 	data32 nopw %cs:0x0(%rax,%rax,1)
     82c:	00 00 00 00 

0000000000000830 <camlPervasives__abs_1049>:
     830:	48 83 f8 01          	cmp    $0x1,%rax
     834:	7c 02                	jl     838 <camlPervasives__abs_1049+0x8>
     836:	c3                   	retq   
     837:	90                   	nop
     838:	48 c7 c3 02 00 00 00 	mov    $0x2,%rbx
     83f:	48 29 c3             	sub    %rax,%rbx
     842:	48 89 d8             	mov    %rbx,%rax
     845:	c3                   	retq   
     846:	66 2e 0f 1f 84 00 00 	nopw   %cs:0x0(%rax,%rax,1)
     84d:	00 00 00 

0000000000000850 <camlPervasives__lnot_1054>:
     850:	48 83 f0 ff          	xor    $0xffffffffffffffff,%rax
     854:	48 83 c8 01          	or     $0x1,%rax
     858:	c3                   	retq   
     859:	0f 1f 80 00 00 00 00 	nopl   0x0(%rax)

0000000000000860 <camlPervasives__$5e_1118>:
     860:	48 83 ec 28          	sub    $0x28,%rsp
     864:	48 89 04 24          	mov    %rax,(%rsp)
     868:	48 89 5c 24 10       	mov    %rbx,0x10(%rsp)
     86d:	48 bf ff ff ff ff ff 	mov    $0x3ffffffffff,%rdi
     874:	03 00 00 
     877:	48 8b 70 f8          	mov    -0x8(%rax),%rsi
     87b:	48 21 fe             	and    %rdi,%rsi
     87e:	48 c1 ee 0a          	shr    $0xa,%rsi
     882:	48 8d 3c f5 ff ff ff 	lea    -0x1(,%rsi,8),%rdi
     889:	ff 
     88a:	48 0f b6 04 38       	movzbq (%rax,%rdi,1),%rax
     88f:	48 29 c7             	sub    %rax,%rdi
     892:	48 8d 44 3f 01       	lea    0x1(%rdi,%rdi,1),%rax
     897:	48 89 44 24 08       	mov    %rax,0x8(%rsp)
     89c:	48 bf ff ff ff ff ff 	mov    $0x3ffffffffff,%rdi
     8a3:	03 00 00 
     8a6:	48 8b 73 f8          	mov    -0x8(%rbx),%rsi
     8aa:	48 21 fe             	and    %rdi,%rsi
     8ad:	48 c1 ee 0a          	shr    $0xa,%rsi
     8b1:	48 8d 3c f5 ff ff ff 	lea    -0x1(,%rsi,8),%rdi
     8b8:	ff 
     8b9:	48 0f b6 1c 3b       	movzbq (%rbx,%rdi,1),%rbx
     8be:	48 29 df             	sub    %rbx,%rdi
     8c1:	48 8d 5c 3f 01       	lea    0x1(%rdi,%rdi,1),%rbx
     8c6:	48 89 5c 24 18       	mov    %rbx,0x18(%rsp)
     8cb:	48 8d 7c 18 ff       	lea    -0x1(%rax,%rbx,1),%rdi
     8d0:	48 8b 05 00 00 00 00 	mov    0x0(%rip),%rax        # 8d7 <camlPervasives__$5e_1118+0x77>
			8d3: R_X86_64_GOTPCREL	caml_create_string-0x4
     8d7:	e8 00 00 00 00       	callq  8dc <camlPervasives__$5e_1118+0x7c>
			8d8: R_X86_64_PLT32	caml_c_call-0x4
     8dc:	4c 8b 1d 00 00 00 00 	mov    0x0(%rip),%r11        # 8e3 <camlPervasives__$5e_1118+0x83>
			8df: R_X86_64_GOTPCREL	caml_young_ptr-0x4
     8e3:	4d 8b 3b             	mov    (%r11),%r15
     8e6:	48 89 c3             	mov    %rax,%rbx
     8e9:	48 c7 c1 01 00 00 00 	mov    $0x1,%rcx
     8f0:	48 c7 c6 01 00 00 00 	mov    $0x1,%rsi
     8f7:	48 8b 3c 24          	mov    (%rsp),%rdi
     8fb:	48 89 da             	mov    %rbx,%rdx
     8fe:	4c 8b 64 24 08       	mov    0x8(%rsp),%r12
     903:	4d 89 e0             	mov    %r12,%r8
     906:	e8 00 00 00 00       	callq  90b <camlPervasives__$5e_1118+0xab>
			907: R_X86_64_PLT32	caml_blit_string-0x4
     90b:	48 c7 c6 01 00 00 00 	mov    $0x1,%rsi
     912:	48 8b 7c 24 10       	mov    0x10(%rsp),%rdi
     917:	48 89 da             	mov    %rbx,%rdx
     91a:	4c 89 e1             	mov    %r12,%rcx
     91d:	4c 8b 44 24 18       	mov    0x18(%rsp),%r8
     922:	e8 00 00 00 00       	callq  927 <camlPervasives__$5e_1118+0xc7>
			923: R_X86_64_PLT32	caml_blit_string-0x4
     927:	48 89 d8             	mov    %rbx,%rax
     92a:	48 83 c4 28          	add    $0x28,%rsp
     92e:	c3                   	retq   
     92f:	90                   	nop

0000000000000930 <camlPervasives__char_of_int_1126>:
     930:	48 83 f8 01          	cmp    $0x1,%rax
     934:	7c 0a                	jl     940 <camlPervasives__char_of_int_1126+0x10>
     936:	48 3d ff 01 00 00    	cmp    $0x1ff,%rax
     93c:	7f 02                	jg     940 <camlPervasives__char_of_int_1126+0x10>
     93e:	c3                   	retq   
     93f:	90                   	nop
     940:	48 8b 05 00 00 00 00 	mov    0x0(%rip),%rax        # 947 <camlPervasives__char_of_int_1126+0x17>
			943: R_X86_64_GOTPCREL	camlPervasives__10-0x4
     947:	e9 00 00 00 00       	jmpq   94c <camlPervasives__char_of_int_1126+0x1c>
			948: R_X86_64_PLT32	camlPervasives__invalid_arg_1007-0x4
     94c:	0f 1f 40 00          	nopl   0x0(%rax)

0000000000000950 <camlPervasives__string_of_bool_1140>:
     950:	48 83 f8 01          	cmp    $0x1,%rax
     954:	74 0a                	je     960 <camlPervasives__string_of_bool_1140+0x10>
     956:	48 8b 05 00 00 00 00 	mov    0x0(%rip),%rax        # 95d <camlPervasives__string_of_bool_1140+0xd>
			959: R_X86_64_GOTPCREL	camlPervasives__11-0x4
     95d:	c3                   	retq   
     95e:	66 90                	xchg   %ax,%ax
     960:	48 8b 05 00 00 00 00 	mov    0x0(%rip),%rax        # 967 <camlPervasives__string_of_bool_1140+0x17>
			963: R_X86_64_GOTPCREL	camlPervasives__12-0x4
     967:	c3                   	retq   
     968:	0f 1f 84 00 00 00 00 	nopl   0x0(%rax,%rax,1)
     96f:	00 

0000000000000970 <camlPervasives__bool_of_string_1142>:
     970:	48 bb ff ff ff ff ff 	mov    $0x3ffffffffff,%rbx
     977:	03 00 00 
     97a:	48 8b 78 f8          	mov    -0x8(%rax),%rdi
     97e:	48 21 df             	and    %rbx,%rdi
     981:	48 c1 ef 0a          	shr    $0xa,%rdi
     985:	48 83 ff 02          	cmp    $0x2,%rdi
     989:	7d 35                	jge    9c0 <camlPervasives__bool_of_string_1142+0x50>
     98b:	48 8b 00             	mov    (%rax),%rax
     98e:	48 bb 66 61 6c 73 65 	mov    $0x2000065736c6166,%rbx
     995:	00 00 02 
     998:	48 39 d8             	cmp    %rbx,%rax
     99b:	75 0b                	jne    9a8 <camlPervasives__bool_of_string_1142+0x38>
     99d:	48 c7 c0 01 00 00 00 	mov    $0x1,%rax
     9a4:	c3                   	retq   
     9a5:	0f 1f 00             	nopl   (%rax)
     9a8:	48 bb 74 72 75 65 00 	mov    $0x300000065757274,%rbx
     9af:	00 00 03 
     9b2:	48 39 d8             	cmp    %rbx,%rax
     9b5:	75 09                	jne    9c0 <camlPervasives__bool_of_string_1142+0x50>
     9b7:	48 c7 c0 03 00 00 00 	mov    $0x3,%rax
     9be:	c3                   	retq   
     9bf:	90                   	nop
     9c0:	48 8b 05 00 00 00 00 	mov    0x0(%rip),%rax        # 9c7 <camlPervasives__bool_of_string_1142+0x57>
			9c3: R_X86_64_GOTPCREL	camlPervasives__13-0x4
     9c7:	e9 00 00 00 00       	jmpq   9cc <camlPervasives__bool_of_string_1142+0x5c>
			9c8: R_X86_64_PLT32	camlPervasives__invalid_arg_1007-0x4
     9cc:	0f 1f 40 00          	nopl   0x0(%rax)

00000000000009d0 <camlPervasives__string_of_int_1143>:
     9d0:	48 83 ec 08          	sub    $0x8,%rsp
     9d4:	48 8b 3d 00 00 00 00 	mov    0x0(%rip),%rdi        # 9db <camlPervasives__string_of_int_1143+0xb>
			9d7: R_X86_64_GOTPCREL	camlPervasives__14-0x4
     9db:	48 89 c6             	mov    %rax,%rsi
     9de:	48 8b 05 00 00 00 00 	mov    0x0(%rip),%rax        # 9e5 <camlPervasives__string_of_int_1143+0x15>
			9e1: R_X86_64_GOTPCREL	caml_format_int-0x4
     9e5:	e8 00 00 00 00       	callq  9ea <camlPervasives__string_of_int_1143+0x1a>
			9e6: R_X86_64_PLT32	caml_c_call-0x4
     9ea:	4c 8b 1d 00 00 00 00 	mov    0x0(%rip),%r11        # 9f1 <camlPervasives__string_of_int_1143+0x21>
			9ed: R_X86_64_GOTPCREL	caml_young_ptr-0x4
     9f1:	4d 8b 3b             	mov    (%r11),%r15
     9f4:	48 83 c4 08          	add    $0x8,%rsp
     9f8:	c3                   	retq   
     9f9:	0f 1f 80 00 00 00 00 	nopl   0x0(%rax)

0000000000000a00 <camlPervasives__valid_float_lexem_1147>:
     a00:	48 83 ec 08          	sub    $0x8,%rsp
     a04:	48 89 c7             	mov    %rax,%rdi
     a07:	48 b8 ff ff ff ff ff 	mov    $0x3ffffffffff,%rax
     a0e:	03 00 00 
     a11:	48 8b 5f f8          	mov    -0x8(%rdi),%rbx
     a15:	48 21 c3             	and    %rax,%rbx
     a18:	48 c1 eb 0a          	shr    $0xa,%rbx
     a1c:	48 8d 04 dd ff ff ff 	lea    -0x1(,%rbx,8),%rax
     a23:	ff 
     a24:	48 0f b6 1c 07       	movzbq (%rdi,%rax,1),%rbx
     a29:	48 29 d8             	sub    %rbx,%rax
     a2c:	48 8d 74 00 01       	lea    0x1(%rax,%rax,1),%rsi
     a31:	49 83 ef 28          	sub    $0x28,%r15
     a35:	48 8b 05 00 00 00 00 	mov    0x0(%rip),%rax        # a3c <camlPervasives__valid_float_lexem_1147+0x3c>
			a38: R_X86_64_GOTPCREL	caml_young_limit-0x4
     a3c:	4c 3b 38             	cmp    (%rax),%r15
     a3f:	72 36                	jb     a77 <camlPervasives__valid_float_lexem_1147+0x77>
     a41:	49 8d 5f 08          	lea    0x8(%r15),%rbx
     a45:	48 c7 43 f8 f7 10 00 	movq   $0x10f7,-0x8(%rbx)
     a4c:	00 
     a4d:	48 8b 05 00 00 00 00 	mov    0x0(%rip),%rax        # a54 <camlPervasives__valid_float_lexem_1147+0x54>
			a50: R_X86_64_GOTPCREL	camlPervasives__loop_1150-0x4
     a54:	48 89 03             	mov    %rax,(%rbx)
     a57:	48 c7 43 08 03 00 00 	movq   $0x3,0x8(%rbx)
     a5e:	00 
     a5f:	48 89 7b 10          	mov    %rdi,0x10(%rbx)
     a63:	48 89 73 18          	mov    %rsi,0x18(%rbx)
     a67:	48 c7 c0 01 00 00 00 	mov    $0x1,%rax
     a6e:	48 83 c4 08          	add    $0x8,%rsp
     a72:	e9 00 00 00 00       	jmpq   a77 <camlPervasives__valid_float_lexem_1147+0x77>
			a73: R_X86_64_PLT32	camlPervasives__loop_1150-0x4
     a77:	e8 00 00 00 00       	callq  a7c <camlPervasives__valid_float_lexem_1147+0x7c>
			a78: R_X86_64_PLT32	caml_call_gc-0x4
     a7c:	eb b3                	jmp    a31 <camlPervasives__valid_float_lexem_1147+0x31>
     a7e:	66 90                	xchg   %ax,%ax

0000000000000a80 <camlPervasives__string_of_float_1152>:
     a80:	48 83 ec 08          	sub    $0x8,%rsp
     a84:	48 8b 3d 00 00 00 00 	mov    0x0(%rip),%rdi        # a8b <camlPervasives__string_of_float_1152+0xb>
			a87: R_X86_64_GOTPCREL	camlPervasives__17-0x4
     a8b:	48 89 c6             	mov    %rax,%rsi
     a8e:	48 8b 05 00 00 00 00 	mov    0x0(%rip),%rax        # a95 <camlPervasives__string_of_float_1152+0x15>
			a91: R_X86_64_GOTPCREL	caml_format_float-0x4
     a95:	e8 00 00 00 00       	callq  a9a <camlPervasives__string_of_float_1152+0x1a>
			a96: R_X86_64_PLT32	caml_c_call-0x4
     a9a:	4c 8b 1d 00 00 00 00 	mov    0x0(%rip),%r11        # aa1 <camlPervasives__string_of_float_1152+0x21>
			a9d: R_X86_64_GOTPCREL	caml_young_ptr-0x4
     aa1:	4d 8b 3b             	mov    (%r11),%r15
     aa4:	48 83 c4 08          	add    $0x8,%rsp
     aa8:	e9 00 00 00 00       	jmpq   aad <camlPervasives__string_of_float_1152+0x2d>
			aa9: R_X86_64_PLT32	camlPervasives__valid_float_lexem_1147-0x4
     aad:	0f 1f 00             	nopl   (%rax)

0000000000000ab0 <camlPervasives__$40_1155>:
     ab0:	48 83 ec 08          	sub    $0x8,%rsp
     ab4:	48 83 f8 01          	cmp    $0x1,%rax
     ab8:	74 42                	je     afc <camlPervasives__$40_1155+0x4c>
     aba:	48 89 04 24          	mov    %rax,(%rsp)
     abe:	48 8b 40 08          	mov    0x8(%rax),%rax
     ac2:	e8 00 00 00 00       	callq  ac7 <camlPervasives__$40_1155+0x17>
			ac3: R_X86_64_PLT32	camlPervasives__$40_1155-0x4
     ac7:	48 89 c3             	mov    %rax,%rbx
     aca:	49 83 ef 18          	sub    $0x18,%r15
     ace:	48 8b 05 00 00 00 00 	mov    0x0(%rip),%rax        # ad5 <camlPervasives__$40_1155+0x25>
			ad1: R_X86_64_GOTPCREL	caml_young_limit-0x4
     ad5:	4c 3b 38             	cmp    (%rax),%r15
     ad8:	72 2a                	jb     b04 <camlPervasives__$40_1155+0x54>
     ada:	49 8d 47 08          	lea    0x8(%r15),%rax
     ade:	48 c7 40 f8 00 08 00 	movq   $0x800,-0x8(%rax)
     ae5:	00 
     ae6:	48 8b 3c 24          	mov    (%rsp),%rdi
     aea:	48 8b 3f             	mov    (%rdi),%rdi
     aed:	48 89 38             	mov    %rdi,(%rax)
     af0:	48 89 58 08          	mov    %rbx,0x8(%rax)
     af4:	48 83 c4 08          	add    $0x8,%rsp
     af8:	c3                   	retq   
     af9:	0f 1f 00             	nopl   (%rax)
     afc:	48 89 d8             	mov    %rbx,%rax
     aff:	48 83 c4 08          	add    $0x8,%rsp
     b03:	c3                   	retq   
     b04:	e8 00 00 00 00       	callq  b09 <camlPervasives__$40_1155+0x59>
			b05: R_X86_64_PLT32	caml_call_gc-0x4
     b09:	eb bf                	jmp    aca <camlPervasives__$40_1155+0x1a>
     b0b:	0f 1f 44 00 00       	nopl   0x0(%rax,%rax,1)

0000000000000b10 <camlPervasives__open_out_gen_1178>:
     b10:	48 83 ec 08          	sub    $0x8,%rsp
     b14:	48 89 c6             	mov    %rax,%rsi
     b17:	48 89 da             	mov    %rbx,%rdx
     b1a:	48 8b 05 00 00 00 00 	mov    0x0(%rip),%rax        # b21 <camlPervasives__open_out_gen_1178+0x11>
			b1d: R_X86_64_GOTPCREL	caml_sys_open-0x4
     b21:	e8 00 00 00 00       	callq  b26 <camlPervasives__open_out_gen_1178+0x16>
			b22: R_X86_64_PLT32	caml_c_call-0x4
     b26:	4c 8b 1d 00 00 00 00 	mov    0x0(%rip),%r11        # b2d <camlPervasives__open_out_gen_1178+0x1d>
			b29: R_X86_64_GOTPCREL	caml_young_ptr-0x4
     b2d:	4d 8b 3b             	mov    (%r11),%r15
     b30:	48 89 c7             	mov    %rax,%rdi
     b33:	48 8b 05 00 00 00 00 	mov    0x0(%rip),%rax        # b3a <camlPervasives__open_out_gen_1178+0x2a>
			b36: R_X86_64_GOTPCREL	caml_ml_open_descriptor_out-0x4
     b3a:	e8 00 00 00 00       	callq  b3f <camlPervasives__open_out_gen_1178+0x2f>
			b3b: R_X86_64_PLT32	caml_c_call-0x4
     b3f:	4c 8b 1d 00 00 00 00 	mov    0x0(%rip),%r11        # b46 <camlPervasives__open_out_gen_1178+0x36>
			b42: R_X86_64_GOTPCREL	caml_young_ptr-0x4
     b46:	4d 8b 3b             	mov    (%r11),%r15
     b49:	48 83 c4 08          	add    $0x8,%rsp
     b4d:	c3                   	retq   
     b4e:	66 90                	xchg   %ax,%ax

0000000000000b50 <camlPervasives__open_out_1182>:
     b50:	48 89 c7             	mov    %rax,%rdi
     b53:	48 c7 c3 6d 03 00 00 	mov    $0x36d,%rbx
     b5a:	48 8b 05 00 00 00 00 	mov    0x0(%rip),%rax        # b61 <camlPervasives__open_out_1182+0x11>
			b5d: R_X86_64_GOTPCREL	camlPervasives__21-0x4
     b61:	e9 00 00 00 00       	jmpq   b66 <camlPervasives__open_out_1182+0x16>
			b62: R_X86_64_PLT32	camlPervasives__open_out_gen_1178-0x4
     b66:	66 2e 0f 1f 84 00 00 	nopw   %cs:0x0(%rax,%rax,1)
     b6d:	00 00 00 

0000000000000b70 <camlPervasives__open_out_bin_1184>:
     b70:	48 89 c7             	mov    %rax,%rdi
     b73:	48 c7 c3 6d 03 00 00 	mov    $0x36d,%rbx
     b7a:	48 8b 05 00 00 00 00 	mov    0x0(%rip),%rax        # b81 <camlPervasives__open_out_bin_1184+0x11>
			b7d: R_X86_64_GOTPCREL	camlPervasives__25-0x4
     b81:	e9 00 00 00 00       	jmpq   b86 <camlPervasives__open_out_bin_1184+0x16>
			b82: R_X86_64_PLT32	camlPervasives__open_out_gen_1178-0x4
     b86:	66 2e 0f 1f 84 00 00 	nopw   %cs:0x0(%rax,%rax,1)
     b8d:	00 00 00 

0000000000000b90 <camlPervasives__flush_all_1188>:
     b90:	48 83 ec 08          	sub    $0x8,%rsp
     b94:	48 8b 05 00 00 00 00 	mov    0x0(%rip),%rax        # b9b <camlPervasives__flush_all_1188+0xb>
			b97: R_X86_64_GOTPCREL	camlPervasives__115-0x4
     b9b:	48 c7 c7 01 00 00 00 	mov    $0x1,%rdi
     ba2:	48 8b 05 00 00 00 00 	mov    0x0(%rip),%rax        # ba9 <camlPervasives__flush_all_1188+0x19>
			ba5: R_X86_64_GOTPCREL	caml_ml_out_channels_list-0x4
     ba9:	e8 00 00 00 00       	callq  bae <camlPervasives__flush_all_1188+0x1e>
			baa: R_X86_64_PLT32	caml_c_call-0x4
     bae:	4c 8b 1d 00 00 00 00 	mov    0x0(%rip),%r11        # bb5 <camlPervasives__flush_all_1188+0x25>
			bb1: R_X86_64_GOTPCREL	caml_young_ptr-0x4
     bb5:	4d 8b 3b             	mov    (%r11),%r15
     bb8:	48 83 c4 08          	add    $0x8,%rsp
     bbc:	e9 00 00 00 00       	jmpq   bc1 <camlPervasives__flush_all_1188+0x31>
			bbd: R_X86_64_PLT32	camlPervasives__iter_1189-0x4
     bc1:	66 66 66 66 66 66 2e 	data32 data32 data32 data32 data32 nopw %cs:0x0(%rax,%rax,1)
     bc8:	0f 1f 84 00 00 00 00 
     bcf:	00 

0000000000000bd0 <camlPervasives__output_bytes_1195>:
     bd0:	48 83 ec 08          	sub    $0x8,%rsp
     bd4:	48 bf ff ff ff ff ff 	mov    $0x3ffffffffff,%rdi
     bdb:	03 00 00 
     bde:	48 8b 73 f8          	mov    -0x8(%rbx),%rsi
     be2:	48 21 fe             	and    %rdi,%rsi
     be5:	48 c1 ee 0a          	shr    $0xa,%rsi
     be9:	48 8d 3c f5 ff ff ff 	lea    -0x1(,%rsi,8),%rdi
     bf0:	ff 
     bf1:	48 0f b6 34 3b       	movzbq (%rbx,%rdi,1),%rsi
     bf6:	48 29 f7             	sub    %rsi,%rdi
     bf9:	48 8d 4c 3f 01       	lea    0x1(%rdi,%rdi,1),%rcx
     bfe:	48 c7 c2 01 00 00 00 	mov    $0x1,%rdx
     c05:	48 89 c7             	mov    %rax,%rdi
     c08:	48 89 de             	mov    %rbx,%rsi
     c0b:	48 8b 05 00 00 00 00 	mov    0x0(%rip),%rax        # c12 <camlPervasives__output_bytes_1195+0x42>
			c0e: R_X86_64_GOTPCREL	caml_ml_output-0x4
     c12:	e8 00 00 00 00       	callq  c17 <camlPervasives__output_bytes_1195+0x47>
			c13: R_X86_64_PLT32	caml_c_call-0x4
     c17:	4c 8b 1d 00 00 00 00 	mov    0x0(%rip),%r11        # c1e <camlPervasives__output_bytes_1195+0x4e>
			c1a: R_X86_64_GOTPCREL	caml_young_ptr-0x4
     c1e:	4d 8b 3b             	mov    (%r11),%r15
     c21:	48 83 c4 08          	add    $0x8,%rsp
     c25:	c3                   	retq   
     c26:	66 2e 0f 1f 84 00 00 	nopw   %cs:0x0(%rax,%rax,1)
     c2d:	00 00 00 

0000000000000c30 <camlPervasives__output_string_1198>:
     c30:	48 83 ec 08          	sub    $0x8,%rsp
     c34:	48 bf ff ff ff ff ff 	mov    $0x3ffffffffff,%rdi
     c3b:	03 00 00 
     c3e:	48 8b 73 f8          	mov    -0x8(%rbx),%rsi
     c42:	48 21 fe             	and    %rdi,%rsi
     c45:	48 c1 ee 0a          	shr    $0xa,%rsi
     c49:	48 8d 3c f5 ff ff ff 	lea    -0x1(,%rsi,8),%rdi
     c50:	ff 
     c51:	48 0f b6 34 3b       	movzbq (%rbx,%rdi,1),%rsi
     c56:	48 29 f7             	sub    %rsi,%rdi
     c59:	48 8d 4c 3f 01       	lea    0x1(%rdi,%rdi,1),%rcx
     c5e:	48 c7 c2 01 00 00 00 	mov    $0x1,%rdx
     c65:	48 89 c7             	mov    %rax,%rdi
     c68:	48 89 de             	mov    %rbx,%rsi
     c6b:	48 8b 05 00 00 00 00 	mov    0x0(%rip),%rax        # c72 <camlPervasives__output_string_1198+0x42>
			c6e: R_X86_64_GOTPCREL	caml_ml_output-0x4
     c72:	e8 00 00 00 00       	callq  c77 <camlPervasives__output_string_1198+0x47>
			c73: R_X86_64_PLT32	caml_c_call-0x4
     c77:	4c 8b 1d 00 00 00 00 	mov    0x0(%rip),%r11        # c7e <camlPervasives__output_string_1198+0x4e>
			c7a: R_X86_64_GOTPCREL	caml_young_ptr-0x4
     c7e:	4d 8b 3b             	mov    (%r11),%r15
     c81:	48 83 c4 08          	add    $0x8,%rsp
     c85:	c3                   	retq   
     c86:	66 2e 0f 1f 84 00 00 	nopw   %cs:0x0(%rax,%rax,1)
     c8d:	00 00 00 

0000000000000c90 <camlPervasives__output_1201>:
     c90:	48 83 ec 08          	sub    $0x8,%rsp
     c94:	48 89 fa             	mov    %rdi,%rdx
     c97:	48 89 f1             	mov    %rsi,%rcx
     c9a:	48 83 fa 01          	cmp    $0x1,%rdx
     c9e:	7c 5c                	jl     cfc <camlPervasives__output_1201+0x6c>
     ca0:	48 83 f9 01          	cmp    $0x1,%rcx
     ca4:	7c 56                	jl     cfc <camlPervasives__output_1201+0x6c>
     ca6:	48 bf ff ff ff ff ff 	mov    $0x3ffffffffff,%rdi
     cad:	03 00 00 
     cb0:	48 8b 73 f8          	mov    -0x8(%rbx),%rsi
     cb4:	48 21 fe             	and    %rdi,%rsi
     cb7:	48 c1 ee 0a          	shr    $0xa,%rsi
     cbb:	48 8d 3c f5 ff ff ff 	lea    -0x1(,%rsi,8),%rdi
     cc2:	ff 
     cc3:	48 0f b6 34 3b       	movzbq (%rbx,%rdi,1),%rsi
     cc8:	48 29 f7             	sub    %rsi,%rdi
     ccb:	48 d1 e7             	shl    %rdi
     cce:	48 29 cf             	sub    %rcx,%rdi
     cd1:	48 83 c7 02          	add    $0x2,%rdi
     cd5:	48 39 fa             	cmp    %rdi,%rdx
     cd8:	7f 22                	jg     cfc <camlPervasives__output_1201+0x6c>
     cda:	48 89 c7             	mov    %rax,%rdi
     cdd:	48 89 de             	mov    %rbx,%rsi
     ce0:	48 8b 05 00 00 00 00 	mov    0x0(%rip),%rax        # ce7 <camlPervasives__output_1201+0x57>
			ce3: R_X86_64_GOTPCREL	caml_ml_output-0x4
     ce7:	e8 00 00 00 00       	callq  cec <camlPervasives__output_1201+0x5c>
			ce8: R_X86_64_PLT32	caml_c_call-0x4
     cec:	4c 8b 1d 00 00 00 00 	mov    0x0(%rip),%r11        # cf3 <camlPervasives__output_1201+0x63>
			cef: R_X86_64_GOTPCREL	caml_young_ptr-0x4
     cf3:	4d 8b 3b             	mov    (%r11),%r15
     cf6:	48 83 c4 08          	add    $0x8,%rsp
     cfa:	c3                   	retq   
     cfb:	90                   	nop
     cfc:	48 8b 05 00 00 00 00 	mov    0x0(%rip),%rax        # d03 <camlPervasives__output_1201+0x73>
			cff: R_X86_64_GOTPCREL	camlPervasives__26-0x4
     d03:	48 83 c4 08          	add    $0x8,%rsp
     d07:	e9 00 00 00 00       	jmpq   d0c <camlPervasives__output_1201+0x7c>
			d08: R_X86_64_PLT32	camlPervasives__invalid_arg_1007-0x4
     d0c:	0f 1f 40 00          	nopl   0x0(%rax)

0000000000000d10 <camlPervasives__output_substring_1206>:
     d10:	48 83 ec 08          	sub    $0x8,%rsp
     d14:	48 89 fa             	mov    %rdi,%rdx
     d17:	48 89 f1             	mov    %rsi,%rcx
     d1a:	48 83 fa 01          	cmp    $0x1,%rdx
     d1e:	7c 5c                	jl     d7c <camlPervasives__output_substring_1206+0x6c>
     d20:	48 83 f9 01          	cmp    $0x1,%rcx
     d24:	7c 56                	jl     d7c <camlPervasives__output_substring_1206+0x6c>
     d26:	48 bf ff ff ff ff ff 	mov    $0x3ffffffffff,%rdi
     d2d:	03 00 00 
     d30:	48 8b 73 f8          	mov    -0x8(%rbx),%rsi
     d34:	48 21 fe             	and    %rdi,%rsi
     d37:	48 c1 ee 0a          	shr    $0xa,%rsi
     d3b:	48 8d 3c f5 ff ff ff 	lea    -0x1(,%rsi,8),%rdi
     d42:	ff 
     d43:	48 0f b6 34 3b       	movzbq (%rbx,%rdi,1),%rsi
     d48:	48 29 f7             	sub    %rsi,%rdi
     d4b:	48 d1 e7             	shl    %rdi
     d4e:	48 29 cf             	sub    %rcx,%rdi
     d51:	48 83 c7 02          	add    $0x2,%rdi
     d55:	48 39 fa             	cmp    %rdi,%rdx
     d58:	7f 22                	jg     d7c <camlPervasives__output_substring_1206+0x6c>
     d5a:	48 89 c7             	mov    %rax,%rdi
     d5d:	48 89 de             	mov    %rbx,%rsi
     d60:	48 8b 05 00 00 00 00 	mov    0x0(%rip),%rax        # d67 <camlPervasives__output_substring_1206+0x57>
			d63: R_X86_64_GOTPCREL	caml_ml_output-0x4
     d67:	e8 00 00 00 00       	callq  d6c <camlPervasives__output_substring_1206+0x5c>
			d68: R_X86_64_PLT32	caml_c_call-0x4
     d6c:	4c 8b 1d 00 00 00 00 	mov    0x0(%rip),%r11        # d73 <camlPervasives__output_substring_1206+0x63>
			d6f: R_X86_64_GOTPCREL	caml_young_ptr-0x4
     d73:	4d 8b 3b             	mov    (%r11),%r15
     d76:	48 83 c4 08          	add    $0x8,%rsp
     d7a:	c3                   	retq   
     d7b:	90                   	nop
     d7c:	48 8b 05 00 00 00 00 	mov    0x0(%rip),%rax        # d83 <camlPervasives__output_substring_1206+0x73>
			d7f: R_X86_64_GOTPCREL	camlPervasives__27-0x4
     d83:	48 83 c4 08          	add    $0x8,%rsp
     d87:	e9 00 00 00 00       	jmpq   d8c <camlPervasives__output_substring_1206+0x7c>
			d88: R_X86_64_PLT32	camlPervasives__invalid_arg_1007-0x4
     d8c:	0f 1f 40 00          	nopl   0x0(%rax)

0000000000000d90 <camlPervasives__output_value_1214>:
     d90:	48 83 ec 08          	sub    $0x8,%rsp
     d94:	48 c7 c2 01 00 00 00 	mov    $0x1,%rdx
     d9b:	48 89 c7             	mov    %rax,%rdi
     d9e:	48 89 de             	mov    %rbx,%rsi
     da1:	48 8b 05 00 00 00 00 	mov    0x0(%rip),%rax        # da8 <camlPervasives__output_value_1214+0x18>
			da4: R_X86_64_GOTPCREL	caml_output_value-0x4
     da8:	e8 00 00 00 00       	callq  dad <camlPervasives__output_value_1214+0x1d>
			da9: R_X86_64_PLT32	caml_c_call-0x4
     dad:	4c 8b 1d 00 00 00 00 	mov    0x0(%rip),%r11        # db4 <camlPervasives__output_value_1214+0x24>
			db0: R_X86_64_GOTPCREL	caml_young_ptr-0x4
     db4:	4d 8b 3b             	mov    (%r11),%r15
     db7:	48 83 c4 08          	add    $0x8,%rsp
     dbb:	c3                   	retq   
     dbc:	0f 1f 40 00          	nopl   0x0(%rax)

0000000000000dc0 <camlPervasives__close_out_1221>:
     dc0:	48 83 ec 08          	sub    $0x8,%rsp
     dc4:	48 89 04 24          	mov    %rax,(%rsp)
     dc8:	48 89 c7             	mov    %rax,%rdi
     dcb:	48 8b 05 00 00 00 00 	mov    0x0(%rip),%rax        # dd2 <camlPervasives__close_out_1221+0x12>
			dce: R_X86_64_GOTPCREL	caml_ml_flush-0x4
     dd2:	e8 00 00 00 00       	callq  dd7 <camlPervasives__close_out_1221+0x17>
			dd3: R_X86_64_PLT32	caml_c_call-0x4
     dd7:	4c 8b 1d 00 00 00 00 	mov    0x0(%rip),%r11        # dde <camlPervasives__close_out_1221+0x1e>
			dda: R_X86_64_GOTPCREL	caml_young_ptr-0x4
     dde:	4d 8b 3b             	mov    (%r11),%r15
     de1:	48 8b 3c 24          	mov    (%rsp),%rdi
     de5:	48 8b 05 00 00 00 00 	mov    0x0(%rip),%rax        # dec <camlPervasives__close_out_1221+0x2c>
			de8: R_X86_64_GOTPCREL	caml_ml_close_channel-0x4
     dec:	e8 00 00 00 00       	callq  df1 <camlPervasives__close_out_1221+0x31>
			ded: R_X86_64_PLT32	caml_c_call-0x4
     df1:	4c 8b 1d 00 00 00 00 	mov    0x0(%rip),%r11        # df8 <camlPervasives__close_out_1221+0x38>
			df4: R_X86_64_GOTPCREL	caml_young_ptr-0x4
     df8:	4d 8b 3b             	mov    (%r11),%r15
     dfb:	48 83 c4 08          	add    $0x8,%rsp
     dff:	c3                   	retq   

0000000000000e00 <camlPervasives__close_out_noerr_1223>:
     e00:	48 83 ec 08          	sub    $0x8,%rsp
     e04:	48 89 04 24          	mov    %rax,(%rsp)
     e08:	e8 03 00 00 00       	callq  e10 <camlPervasives__close_out_noerr_1223+0x10>
     e0d:	eb 25                	jmp    e34 <camlPervasives__close_out_noerr_1223+0x34>
     e0f:	90                   	nop
     e10:	41 56                	push   %r14
     e12:	49 89 e6             	mov    %rsp,%r14
     e15:	48 89 c7             	mov    %rax,%rdi
     e18:	48 8b 05 00 00 00 00 	mov    0x0(%rip),%rax        # e1f <camlPervasives__close_out_noerr_1223+0x1f>
			e1b: R_X86_64_GOTPCREL	caml_ml_flush-0x4
     e1f:	e8 00 00 00 00       	callq  e24 <camlPervasives__close_out_noerr_1223+0x24>
			e20: R_X86_64_PLT32	caml_c_call-0x4
     e24:	4c 8b 1d 00 00 00 00 	mov    0x0(%rip),%r11        # e2b <camlPervasives__close_out_noerr_1223+0x2b>
			e27: R_X86_64_GOTPCREL	caml_young_ptr-0x4
     e2b:	4d 8b 3b             	mov    (%r11),%r15
     e2e:	41 5e                	pop    %r14
     e30:	48 83 c4 08          	add    $0x8,%rsp
     e34:	e8 0f 00 00 00       	callq  e48 <camlPervasives__close_out_noerr_1223+0x48>
     e39:	48 c7 c0 01 00 00 00 	mov    $0x1,%rax
     e40:	48 83 c4 08          	add    $0x8,%rsp
     e44:	c3                   	retq   
     e45:	0f 1f 00             	nopl   (%rax)
     e48:	41 56                	push   %r14
     e4a:	49 89 e6             	mov    %rsp,%r14
     e4d:	48 8b 7c 24 10       	mov    0x10(%rsp),%rdi
     e52:	48 8b 05 00 00 00 00 	mov    0x0(%rip),%rax        # e59 <camlPervasives__close_out_noerr_1223+0x59>
			e55: R_X86_64_GOTPCREL	caml_ml_close_channel-0x4
     e59:	e8 00 00 00 00       	callq  e5e <camlPervasives__close_out_noerr_1223+0x5e>
			e5a: R_X86_64_PLT32	caml_c_call-0x4
     e5e:	4c 8b 1d 00 00 00 00 	mov    0x0(%rip),%r11        # e65 <camlPervasives__close_out_noerr_1223+0x65>
			e61: R_X86_64_GOTPCREL	caml_young_ptr-0x4
     e65:	4d 8b 3b             	mov    (%r11),%r15
     e68:	41 5e                	pop    %r14
     e6a:	48 83 c4 08          	add    $0x8,%rsp
     e6e:	48 83 c4 08          	add    $0x8,%rsp
     e72:	c3                   	retq   
     e73:	66 66 66 66 2e 0f 1f 	data32 data32 data32 nopw %cs:0x0(%rax,%rax,1)
     e7a:	84 00 00 00 00 00 

0000000000000e80 <camlPervasives__open_in_gen_1226>:
     e80:	48 83 ec 08          	sub    $0x8,%rsp
     e84:	48 89 c6             	mov    %rax,%rsi
     e87:	48 89 da             	mov    %rbx,%rdx
     e8a:	48 8b 05 00 00 00 00 	mov    0x0(%rip),%rax        # e91 <camlPervasives__open_in_gen_1226+0x11>
			e8d: R_X86_64_GOTPCREL	caml_sys_open-0x4
     e91:	e8 00 00 00 00       	callq  e96 <camlPervasives__open_in_gen_1226+0x16>
			e92: R_X86_64_PLT32	caml_c_call-0x4
     e96:	4c 8b 1d 00 00 00 00 	mov    0x0(%rip),%r11        # e9d <camlPervasives__open_in_gen_1226+0x1d>
			e99: R_X86_64_GOTPCREL	caml_young_ptr-0x4
     e9d:	4d 8b 3b             	mov    (%r11),%r15
     ea0:	48 89 c7             	mov    %rax,%rdi
     ea3:	48 8b 05 00 00 00 00 	mov    0x0(%rip),%rax        # eaa <camlPervasives__open_in_gen_1226+0x2a>
			ea6: R_X86_64_GOTPCREL	caml_ml_open_descriptor_in-0x4
     eaa:	e8 00 00 00 00       	callq  eaf <camlPervasives__open_in_gen_1226+0x2f>
			eab: R_X86_64_PLT32	caml_c_call-0x4
     eaf:	4c 8b 1d 00 00 00 00 	mov    0x0(%rip),%r11        # eb6 <camlPervasives__open_in_gen_1226+0x36>
			eb2: R_X86_64_GOTPCREL	caml_young_ptr-0x4
     eb6:	4d 8b 3b             	mov    (%r11),%r15
     eb9:	48 83 c4 08          	add    $0x8,%rsp
     ebd:	c3                   	retq   
     ebe:	66 90                	xchg   %ax,%ax

0000000000000ec0 <camlPervasives__open_in_1230>:
     ec0:	48 89 c7             	mov    %rax,%rdi
     ec3:	48 c7 c3 01 00 00 00 	mov    $0x1,%rbx
     eca:	48 8b 05 00 00 00 00 	mov    0x0(%rip),%rax        # ed1 <camlPervasives__open_in_1230+0x11>
			ecd: R_X86_64_GOTPCREL	camlPervasives__28-0x4
     ed1:	e9 00 00 00 00       	jmpq   ed6 <camlPervasives__open_in_1230+0x16>
			ed2: R_X86_64_PLT32	camlPervasives__open_in_gen_1226-0x4
     ed6:	66 2e 0f 1f 84 00 00 	nopw   %cs:0x0(%rax,%rax,1)
     edd:	00 00 00 

0000000000000ee0 <camlPervasives__open_in_bin_1232>:
     ee0:	48 89 c7             	mov    %rax,%rdi
     ee3:	48 c7 c3 01 00 00 00 	mov    $0x1,%rbx
     eea:	48 8b 05 00 00 00 00 	mov    0x0(%rip),%rax        # ef1 <camlPervasives__open_in_bin_1232+0x11>
			eed: R_X86_64_GOTPCREL	camlPervasives__29-0x4
     ef1:	e9 00 00 00 00       	jmpq   ef6 <camlPervasives__open_in_bin_1232+0x16>
			ef2: R_X86_64_PLT32	camlPervasives__open_in_gen_1226-0x4
     ef6:	66 2e 0f 1f 84 00 00 	nopw   %cs:0x0(%rax,%rax,1)
     efd:	00 00 00 

0000000000000f00 <camlPervasives__input_1236>:
     f00:	48 83 ec 08          	sub    $0x8,%rsp
     f04:	48 89 fa             	mov    %rdi,%rdx
     f07:	48 89 f1             	mov    %rsi,%rcx
     f0a:	48 83 fa 01          	cmp    $0x1,%rdx
     f0e:	7c 5c                	jl     f6c <camlPervasives__input_1236+0x6c>
     f10:	48 83 f9 01          	cmp    $0x1,%rcx
     f14:	7c 56                	jl     f6c <camlPervasives__input_1236+0x6c>
     f16:	48 bf ff ff ff ff ff 	mov    $0x3ffffffffff,%rdi
     f1d:	03 00 00 
     f20:	48 8b 73 f8          	mov    -0x8(%rbx),%rsi
     f24:	48 21 fe             	and    %rdi,%rsi
     f27:	48 c1 ee 0a          	shr    $0xa,%rsi
     f2b:	48 8d 3c f5 ff ff ff 	lea    -0x1(,%rsi,8),%rdi
     f32:	ff 
     f33:	48 0f b6 34 3b       	movzbq (%rbx,%rdi,1),%rsi
     f38:	48 29 f7             	sub    %rsi,%rdi
     f3b:	48 d1 e7             	shl    %rdi
     f3e:	48 29 cf             	sub    %rcx,%rdi
     f41:	48 83 c7 02          	add    $0x2,%rdi
     f45:	48 39 fa             	cmp    %rdi,%rdx
     f48:	7f 22                	jg     f6c <camlPervasives__input_1236+0x6c>
     f4a:	48 89 c7             	mov    %rax,%rdi
     f4d:	48 89 de             	mov    %rbx,%rsi
     f50:	48 8b 05 00 00 00 00 	mov    0x0(%rip),%rax        # f57 <camlPervasives__input_1236+0x57>
			f53: R_X86_64_GOTPCREL	caml_ml_input-0x4
     f57:	e8 00 00 00 00       	callq  f5c <camlPervasives__input_1236+0x5c>
			f58: R_X86_64_PLT32	caml_c_call-0x4
     f5c:	4c 8b 1d 00 00 00 00 	mov    0x0(%rip),%r11        # f63 <camlPervasives__input_1236+0x63>
			f5f: R_X86_64_GOTPCREL	caml_young_ptr-0x4
     f63:	4d 8b 3b             	mov    (%r11),%r15
     f66:	48 83 c4 08          	add    $0x8,%rsp
     f6a:	c3                   	retq   
     f6b:	90                   	nop
     f6c:	48 8b 05 00 00 00 00 	mov    0x0(%rip),%rax        # f73 <camlPervasives__input_1236+0x73>
			f6f: R_X86_64_GOTPCREL	camlPervasives__30-0x4
     f73:	48 83 c4 08          	add    $0x8,%rsp
     f77:	e9 00 00 00 00       	jmpq   f7c <camlPervasives__input_1236+0x7c>
			f78: R_X86_64_PLT32	camlPervasives__invalid_arg_1007-0x4
     f7c:	0f 1f 40 00          	nopl   0x0(%rax)

0000000000000f80 <camlPervasives__unsafe_really_input_1241>:
     f80:	48 83 ec 28          	sub    $0x28,%rsp
     f84:	48 89 fa             	mov    %rdi,%rdx
     f87:	48 89 f1             	mov    %rsi,%rcx
     f8a:	48 83 f9 01          	cmp    $0x1,%rcx
     f8e:	7f 0c                	jg     f9c <camlPervasives__unsafe_really_input_1241+0x1c>
     f90:	48 c7 c0 01 00 00 00 	mov    $0x1,%rax
     f97:	48 83 c4 28          	add    $0x28,%rsp
     f9b:	c3                   	retq   
     f9c:	48 89 0c 24          	mov    %rcx,(%rsp)
     fa0:	48 89 54 24 08       	mov    %rdx,0x8(%rsp)
     fa5:	48 89 5c 24 18       	mov    %rbx,0x18(%rsp)
     faa:	48 89 44 24 10       	mov    %rax,0x10(%rsp)
     faf:	48 89 c7             	mov    %rax,%rdi
     fb2:	48 89 de             	mov    %rbx,%rsi
     fb5:	48 8b 05 00 00 00 00 	mov    0x0(%rip),%rax        # fbc <camlPervasives__unsafe_really_input_1241+0x3c>
			fb8: R_X86_64_GOTPCREL	caml_ml_input-0x4
     fbc:	e8 00 00 00 00       	callq  fc1 <camlPervasives__unsafe_really_input_1241+0x41>
			fbd: R_X86_64_PLT32	caml_c_call-0x4
     fc1:	4c 8b 1d 00 00 00 00 	mov    0x0(%rip),%r11        # fc8 <camlPervasives__unsafe_really_input_1241+0x48>
			fc4: R_X86_64_GOTPCREL	caml_young_ptr-0x4
     fc8:	4d 8b 3b             	mov    (%r11),%r15
     fcb:	48 83 f8 01          	cmp    $0x1,%rax
     fcf:	75 0f                	jne    fe0 <camlPervasives__unsafe_really_input_1241+0x60>
     fd1:	48 8b 05 00 00 00 00 	mov    0x0(%rip),%rax        # fd8 <camlPervasives__unsafe_really_input_1241+0x58>
			fd4: R_X86_64_GOTPCREL	caml_exn_End_of_file-0x4
     fd8:	e8 00 00 00 00       	callq  fdd <camlPervasives__unsafe_really_input_1241+0x5d>
			fd9: R_X86_64_PLT32	caml_raise_exn-0x4
     fdd:	0f 1f 00             	nopl   (%rax)
     fe0:	48 8b 34 24          	mov    (%rsp),%rsi
     fe4:	48 29 c6             	sub    %rax,%rsi
     fe7:	48 ff c6             	inc    %rsi
     fea:	48 8b 5c 24 08       	mov    0x8(%rsp),%rbx
     fef:	48 8d 7c 03 ff       	lea    -0x1(%rbx,%rax,1),%rdi
     ff4:	48 8b 44 24 10       	mov    0x10(%rsp),%rax
     ff9:	48 8b 5c 24 18       	mov    0x18(%rsp),%rbx
     ffe:	eb 84                	jmp    f84 <camlPervasives__unsafe_really_input_1241+0x4>

0000000000001000 <camlPervasives__really_input_1247>:
    1000:	48 83 ff 01          	cmp    $0x1,%rdi
    1004:	7c 42                	jl     1048 <camlPervasives__really_input_1247+0x48>
    1006:	48 83 fe 01          	cmp    $0x1,%rsi
    100a:	7c 3c                	jl     1048 <camlPervasives__really_input_1247+0x48>
    100c:	48 ba ff ff ff ff ff 	mov    $0x3ffffffffff,%rdx
    1013:	03 00 00 
    1016:	48 8b 4b f8          	mov    -0x8(%rbx),%rcx
    101a:	48 21 d1             	and    %rdx,%rcx
    101d:	48 c1 e9 0a          	shr    $0xa,%rcx
    1021:	48 8d 14 cd ff ff ff 	lea    -0x1(,%rcx,8),%rdx
    1028:	ff 
    1029:	48 0f b6 0c 13       	movzbq (%rbx,%rdx,1),%rcx
    102e:	48 29 ca             	sub    %rcx,%rdx
    1031:	48 d1 e2             	shl    %rdx
    1034:	48 29 f2             	sub    %rsi,%rdx
    1037:	48 83 c2 02          	add    $0x2,%rdx
    103b:	48 39 d7             	cmp    %rdx,%rdi
    103e:	7f 08                	jg     1048 <camlPervasives__really_input_1247+0x48>
    1040:	e9 00 00 00 00       	jmpq   1045 <camlPervasives__really_input_1247+0x45>
			1041: R_X86_64_PLT32	camlPervasives__unsafe_really_input_1241-0x4
    1045:	0f 1f 00             	nopl   (%rax)
    1048:	48 8b 05 00 00 00 00 	mov    0x0(%rip),%rax        # 104f <camlPervasives__really_input_1247+0x4f>
			104b: R_X86_64_GOTPCREL	camlPervasives__31-0x4
    104f:	e9 00 00 00 00       	jmpq   1054 <camlPervasives__really_input_1247+0x54>
			1050: R_X86_64_PLT32	camlPervasives__invalid_arg_1007-0x4
    1054:	66 66 66 2e 0f 1f 84 	data32 data32 nopw %cs:0x0(%rax,%rax,1)
    105b:	00 00 00 00 00 

0000000000001060 <camlPervasives__really_input_string_1252>:
    1060:	48 83 ec 18          	sub    $0x18,%rsp
    1064:	48 89 04 24          	mov    %rax,(%rsp)
    1068:	48 89 5c 24 08       	mov    %rbx,0x8(%rsp)
    106d:	48 89 df             	mov    %rbx,%rdi
    1070:	48 8b 05 00 00 00 00 	mov    0x0(%rip),%rax        # 1077 <camlPervasives__really_input_string_1252+0x17>
			1073: R_X86_64_GOTPCREL	caml_create_string-0x4
    1077:	e8 00 00 00 00       	callq  107c <camlPervasives__really_input_string_1252+0x1c>
			1078: R_X86_64_PLT32	caml_c_call-0x4
    107c:	4c 8b 1d 00 00 00 00 	mov    0x0(%rip),%r11        # 1083 <camlPervasives__really_input_string_1252+0x23>
			107f: R_X86_64_GOTPCREL	caml_young_ptr-0x4
    1083:	4d 8b 3b             	mov    (%r11),%r15
    1086:	48 89 c3             	mov    %rax,%rbx
    1089:	48 89 5c 24 10       	mov    %rbx,0x10(%rsp)
    108e:	48 c7 c7 01 00 00 00 	mov    $0x1,%rdi
    1095:	48 8b 04 24          	mov    (%rsp),%rax
    1099:	48 8b 74 24 08       	mov    0x8(%rsp),%rsi
    109e:	e8 00 00 00 00       	callq  10a3 <camlPervasives__really_input_string_1252+0x43>
			109f: R_X86_64_PLT32	camlPervasives__really_input_1247-0x4
    10a3:	48 8b 44 24 10       	mov    0x10(%rsp),%rax
    10a8:	48 83 c4 18          	add    $0x18,%rsp
    10ac:	c3                   	retq   
    10ad:	0f 1f 00             	nopl   (%rax)

00000000000010b0 <camlPervasives__input_line_1257>:
    10b0:	48 83 ec 08          	sub    $0x8,%rsp
    10b4:	48 89 c3             	mov    %rax,%rbx
    10b7:	48 8b 35 00 00 00 00 	mov    0x0(%rip),%rsi        # 10be <camlPervasives__input_line_1257+0xe>
			10ba: R_X86_64_GOTPCREL	camlPervasives__114-0x4
    10be:	49 83 ef 30          	sub    $0x30,%r15
    10c2:	48 8b 05 00 00 00 00 	mov    0x0(%rip),%rax        # 10c9 <camlPervasives__input_line_1257+0x19>
			10c5: R_X86_64_GOTPCREL	caml_young_limit-0x4
    10c9:	4c 3b 38             	cmp    (%rax),%r15
    10cc:	72 48                	jb     1116 <camlPervasives__input_line_1257+0x66>
    10ce:	49 8d 7f 08          	lea    0x8(%r15),%rdi
    10d2:	48 c7 47 f8 f7 14 00 	movq   $0x14f7,-0x8(%rdi)
    10d9:	00 
    10da:	48 8b 05 00 00 00 00 	mov    0x0(%rip),%rax        # 10e1 <camlPervasives__input_line_1257+0x31>
			10dd: R_X86_64_GOTPCREL	caml_curry2-0x4
    10e1:	48 89 07             	mov    %rax,(%rdi)
    10e4:	48 c7 47 08 05 00 00 	movq   $0x5,0x8(%rdi)
    10eb:	00 
    10ec:	48 8b 05 00 00 00 00 	mov    0x0(%rip),%rax        # 10f3 <camlPervasives__input_line_1257+0x43>
			10ef: R_X86_64_GOTPCREL	camlPervasives__scan_1265-0x4
    10f3:	48 89 47 10          	mov    %rax,0x10(%rdi)
    10f7:	48 89 5f 18          	mov    %rbx,0x18(%rdi)
    10fb:	48 89 77 20          	mov    %rsi,0x20(%rdi)
    10ff:	48 c7 c3 01 00 00 00 	mov    $0x1,%rbx
    1106:	48 c7 c0 01 00 00 00 	mov    $0x1,%rax
    110d:	48 83 c4 08          	add    $0x8,%rsp
    1111:	e9 00 00 00 00       	jmpq   1116 <camlPervasives__input_line_1257+0x66>
			1112: R_X86_64_PLT32	camlPervasives__scan_1265-0x4
    1116:	e8 00 00 00 00       	callq  111b <camlPervasives__input_line_1257+0x6b>
			1117: R_X86_64_PLT32	caml_call_gc-0x4
    111b:	eb a1                	jmp    10be <camlPervasives__input_line_1257+0xe>
    111d:	0f 1f 00             	nopl   (%rax)

0000000000001120 <camlPervasives__close_in_noerr_1279>:
    1120:	48 83 ec 08          	sub    $0x8,%rsp
    1124:	e8 0f 00 00 00       	callq  1138 <camlPervasives__close_in_noerr_1279+0x18>
    1129:	48 c7 c0 01 00 00 00 	mov    $0x1,%rax
    1130:	48 83 c4 08          	add    $0x8,%rsp
    1134:	c3                   	retq   
    1135:	0f 1f 00             	nopl   (%rax)
    1138:	41 56                	push   %r14
    113a:	49 89 e6             	mov    %rsp,%r14
    113d:	48 89 c7             	mov    %rax,%rdi
    1140:	48 8b 05 00 00 00 00 	mov    0x0(%rip),%rax        # 1147 <camlPervasives__close_in_noerr_1279+0x27>
			1143: R_X86_64_GOTPCREL	caml_ml_close_channel-0x4
    1147:	e8 00 00 00 00       	callq  114c <camlPervasives__close_in_noerr_1279+0x2c>
			1148: R_X86_64_PLT32	caml_c_call-0x4
    114c:	4c 8b 1d 00 00 00 00 	mov    0x0(%rip),%r11        # 1153 <camlPervasives__close_in_noerr_1279+0x33>
			114f: R_X86_64_GOTPCREL	caml_young_ptr-0x4
    1153:	4d 8b 3b             	mov    (%r11),%r15
    1156:	41 5e                	pop    %r14
    1158:	48 83 c4 08          	add    $0x8,%rsp
    115c:	48 83 c4 08          	add    $0x8,%rsp
    1160:	c3                   	retq   
    1161:	66 66 66 66 66 66 2e 	data32 data32 data32 data32 data32 nopw %cs:0x0(%rax,%rax,1)
    1168:	0f 1f 84 00 00 00 00 
    116f:	00 

0000000000001170 <camlPervasives__print_char_1282>:
    1170:	48 83 ec 08          	sub    $0x8,%rsp
    1174:	48 8b 1d 00 00 00 00 	mov    0x0(%rip),%rbx        # 117b <camlPervasives__print_char_1282+0xb>
			1177: R_X86_64_GOTPCREL	camlPervasives-0x4
    117b:	48 8b bb b8 00 00 00 	mov    0xb8(%rbx),%rdi
    1182:	48 89 c6             	mov    %rax,%rsi
    1185:	48 8b 05 00 00 00 00 	mov    0x0(%rip),%rax        # 118c <camlPervasives__print_char_1282+0x1c>
			1188: R_X86_64_GOTPCREL	caml_ml_output_char-0x4
    118c:	e8 00 00 00 00       	callq  1191 <camlPervasives__print_char_1282+0x21>
			118d: R_X86_64_PLT32	caml_c_call-0x4
    1191:	4c 8b 1d 00 00 00 00 	mov    0x0(%rip),%r11        # 1198 <camlPervasives__print_char_1282+0x28>
			1194: R_X86_64_GOTPCREL	caml_young_ptr-0x4
    1198:	4d 8b 3b             	mov    (%r11),%r15
    119b:	48 83 c4 08          	add    $0x8,%rsp
    119f:	c3                   	retq   

00000000000011a0 <camlPervasives__print_string_1284>:
    11a0:	48 89 c3             	mov    %rax,%rbx
    11a3:	48 8b 05 00 00 00 00 	mov    0x0(%rip),%rax        # 11aa <camlPervasives__print_string_1284+0xa>
			11a6: R_X86_64_GOTPCREL	camlPervasives-0x4
    11aa:	48 8b 80 b8 00 00 00 	mov    0xb8(%rax),%rax
    11b1:	e9 00 00 00 00       	jmpq   11b6 <camlPervasives__print_string_1284+0x16>
			11b2: R_X86_64_PLT32	camlPervasives__output_string_1198-0x4
    11b6:	66 2e 0f 1f 84 00 00 	nopw   %cs:0x0(%rax,%rax,1)
    11bd:	00 00 00 

00000000000011c0 <camlPervasives__print_bytes_1286>:
    11c0:	48 89 c3             	mov    %rax,%rbx
    11c3:	48 8b 05 00 00 00 00 	mov    0x0(%rip),%rax        # 11ca <camlPervasives__print_bytes_1286+0xa>
			11c6: R_X86_64_GOTPCREL	camlPervasives-0x4
    11ca:	48 8b 80 b8 00 00 00 	mov    0xb8(%rax),%rax
    11d1:	e9 00 00 00 00       	jmpq   11d6 <camlPervasives__print_bytes_1286+0x16>
			11d2: R_X86_64_PLT32	camlPervasives__output_bytes_1195-0x4
    11d6:	66 2e 0f 1f 84 00 00 	nopw   %cs:0x0(%rax,%rax,1)
    11dd:	00 00 00 

00000000000011e0 <camlPervasives__print_int_1288>:
    11e0:	48 83 ec 08          	sub    $0x8,%rsp
    11e4:	e8 00 00 00 00       	callq  11e9 <camlPervasives__print_int_1288+0x9>
			11e5: R_X86_64_PLT32	camlPervasives__string_of_int_1143-0x4
    11e9:	48 89 c3             	mov    %rax,%rbx
    11ec:	48 8b 05 00 00 00 00 	mov    0x0(%rip),%rax        # 11f3 <camlPervasives__print_int_1288+0x13>
			11ef: R_X86_64_GOTPCREL	camlPervasives-0x4
    11f3:	48 8b 80 b8 00 00 00 	mov    0xb8(%rax),%rax
    11fa:	48 83 c4 08          	add    $0x8,%rsp
    11fe:	e9 00 00 00 00       	jmpq   1203 <camlPervasives__print_int_1288+0x23>
			11ff: R_X86_64_PLT32	camlPervasives__output_string_1198-0x4
    1203:	66 66 66 66 2e 0f 1f 	data32 data32 data32 nopw %cs:0x0(%rax,%rax,1)
    120a:	84 00 00 00 00 00 

0000000000001210 <camlPervasives__print_float_1290>:
    1210:	48 83 ec 08          	sub    $0x8,%rsp
    1214:	e8 00 00 00 00       	callq  1219 <camlPervasives__print_float_1290+0x9>
			1215: R_X86_64_PLT32	camlPervasives__string_of_float_1152-0x4
    1219:	48 89 c3             	mov    %rax,%rbx
    121c:	48 8b 05 00 00 00 00 	mov    0x0(%rip),%rax        # 1223 <camlPervasives__print_float_1290+0x13>
			121f: R_X86_64_GOTPCREL	camlPervasives-0x4
    1223:	48 8b 80 b8 00 00 00 	mov    0xb8(%rax),%rax
    122a:	48 83 c4 08          	add    $0x8,%rsp
    122e:	e9 00 00 00 00       	jmpq   1233 <camlPervasives__print_float_1290+0x23>
			122f: R_X86_64_PLT32	camlPervasives__output_string_1198-0x4
    1233:	66 66 66 66 2e 0f 1f 	data32 data32 data32 nopw %cs:0x0(%rax,%rax,1)
    123a:	84 00 00 00 00 00 

0000000000001240 <camlPervasives__print_endline_1292>:
    1240:	48 83 ec 08          	sub    $0x8,%rsp
    1244:	48 89 c3             	mov    %rax,%rbx
    1247:	48 8b 05 00 00 00 00 	mov    0x0(%rip),%rax        # 124e <camlPervasives__print_endline_1292+0xe>
			124a: R_X86_64_GOTPCREL	camlPervasives-0x4
    124e:	48 8b 80 b8 00 00 00 	mov    0xb8(%rax),%rax
    1255:	e8 00 00 00 00       	callq  125a <camlPervasives__print_endline_1292+0x1a>
			1256: R_X86_64_PLT32	camlPervasives__output_string_1198-0x4
    125a:	48 c7 c6 15 00 00 00 	mov    $0x15,%rsi
    1261:	48 8b 05 00 00 00 00 	mov    0x0(%rip),%rax        # 1268 <camlPervasives__print_endline_1292+0x28>
			1264: R_X86_64_GOTPCREL	camlPervasives-0x4
    1268:	48 8b b8 b8 00 00 00 	mov    0xb8(%rax),%rdi
    126f:	48 8b 05 00 00 00 00 	mov    0x0(%rip),%rax        # 1276 <camlPervasives__print_endline_1292+0x36>
			1272: R_X86_64_GOTPCREL	caml_ml_output_char-0x4
    1276:	e8 00 00 00 00       	callq  127b <camlPervasives__print_endline_1292+0x3b>
			1277: R_X86_64_PLT32	caml_c_call-0x4
    127b:	4c 8b 1d 00 00 00 00 	mov    0x0(%rip),%r11        # 1282 <camlPervasives__print_endline_1292+0x42>
			127e: R_X86_64_GOTPCREL	caml_young_ptr-0x4
    1282:	4d 8b 3b             	mov    (%r11),%r15
    1285:	48 8b 05 00 00 00 00 	mov    0x0(%rip),%rax        # 128c <camlPervasives__print_endline_1292+0x4c>
			1288: R_X86_64_GOTPCREL	camlPervasives-0x4
    128c:	48 8b b8 b8 00 00 00 	mov    0xb8(%rax),%rdi
    1293:	48 8b 05 00 00 00 00 	mov    0x0(%rip),%rax        # 129a <camlPervasives__print_endline_1292+0x5a>
			1296: R_X86_64_GOTPCREL	caml_ml_flush-0x4
    129a:	e8 00 00 00 00       	callq  129f <camlPervasives__print_endline_1292+0x5f>
			129b: R_X86_64_PLT32	caml_c_call-0x4
    129f:	4c 8b 1d 00 00 00 00 	mov    0x0(%rip),%r11        # 12a6 <camlPervasives__print_endline_1292+0x66>
			12a2: R_X86_64_GOTPCREL	caml_young_ptr-0x4
    12a6:	4d 8b 3b             	mov    (%r11),%r15
    12a9:	48 83 c4 08          	add    $0x8,%rsp
    12ad:	c3                   	retq   
    12ae:	66 90                	xchg   %ax,%ax

00000000000012b0 <camlPervasives__print_newline_1294>:
    12b0:	48 83 ec 08          	sub    $0x8,%rsp
    12b4:	48 c7 c6 15 00 00 00 	mov    $0x15,%rsi
    12bb:	48 8b 05 00 00 00 00 	mov    0x0(%rip),%rax        # 12c2 <camlPervasives__print_newline_1294+0x12>
			12be: R_X86_64_GOTPCREL	camlPervasives-0x4
    12c2:	48 8b b8 b8 00 00 00 	mov    0xb8(%rax),%rdi
    12c9:	48 8b 05 00 00 00 00 	mov    0x0(%rip),%rax        # 12d0 <camlPervasives__print_newline_1294+0x20>
			12cc: R_X86_64_GOTPCREL	caml_ml_output_char-0x4
    12d0:	e8 00 00 00 00       	callq  12d5 <camlPervasives__print_newline_1294+0x25>
			12d1: R_X86_64_PLT32	caml_c_call-0x4
    12d5:	4c 8b 1d 00 00 00 00 	mov    0x0(%rip),%r11        # 12dc <camlPervasives__print_newline_1294+0x2c>
			12d8: R_X86_64_GOTPCREL	caml_young_ptr-0x4
    12dc:	4d 8b 3b             	mov    (%r11),%r15
    12df:	48 8b 05 00 00 00 00 	mov    0x0(%rip),%rax        # 12e6 <camlPervasives__print_newline_1294+0x36>
			12e2: R_X86_64_GOTPCREL	camlPervasives-0x4
    12e6:	48 8b b8 b8 00 00 00 	mov    0xb8(%rax),%rdi
    12ed:	48 8b 05 00 00 00 00 	mov    0x0(%rip),%rax        # 12f4 <camlPervasives__print_newline_1294+0x44>
			12f0: R_X86_64_GOTPCREL	caml_ml_flush-0x4
    12f4:	e8 00 00 00 00       	callq  12f9 <camlPervasives__print_newline_1294+0x49>
			12f5: R_X86_64_PLT32	caml_c_call-0x4
    12f9:	4c 8b 1d 00 00 00 00 	mov    0x0(%rip),%r11        # 1300 <camlPervasives__print_newline_1294+0x50>
			12fc: R_X86_64_GOTPCREL	caml_young_ptr-0x4
    1300:	4d 8b 3b             	mov    (%r11),%r15
    1303:	48 83 c4 08          	add    $0x8,%rsp
    1307:	c3                   	retq   
    1308:	0f 1f 84 00 00 00 00 	nopl   0x0(%rax,%rax,1)
    130f:	00 

0000000000001310 <camlPervasives__prerr_char_1295>:
    1310:	48 83 ec 08          	sub    $0x8,%rsp
    1314:	48 8b 1d 00 00 00 00 	mov    0x0(%rip),%rbx        # 131b <camlPervasives__prerr_char_1295+0xb>
			1317: R_X86_64_GOTPCREL	camlPervasives-0x4
    131b:	48 8b bb c0 00 00 00 	mov    0xc0(%rbx),%rdi
    1322:	48 89 c6             	mov    %rax,%rsi
    1325:	48 8b 05 00 00 00 00 	mov    0x0(%rip),%rax        # 132c <camlPervasives__prerr_char_1295+0x1c>
			1328: R_X86_64_GOTPCREL	caml_ml_output_char-0x4
    132c:	e8 00 00 00 00       	callq  1331 <camlPervasives__prerr_char_1295+0x21>
			132d: R_X86_64_PLT32	caml_c_call-0x4
    1331:	4c 8b 1d 00 00 00 00 	mov    0x0(%rip),%r11        # 1338 <camlPervasives__prerr_char_1295+0x28>
			1334: R_X86_64_GOTPCREL	caml_young_ptr-0x4
    1338:	4d 8b 3b             	mov    (%r11),%r15
    133b:	48 83 c4 08          	add    $0x8,%rsp
    133f:	c3                   	retq   

0000000000001340 <camlPervasives__prerr_string_1297>:
    1340:	48 89 c3             	mov    %rax,%rbx
    1343:	48 8b 05 00 00 00 00 	mov    0x0(%rip),%rax        # 134a <camlPervasives__prerr_string_1297+0xa>
			1346: R_X86_64_GOTPCREL	camlPervasives-0x4
    134a:	48 8b 80 c0 00 00 00 	mov    0xc0(%rax),%rax
    1351:	e9 00 00 00 00       	jmpq   1356 <camlPervasives__prerr_string_1297+0x16>
			1352: R_X86_64_PLT32	camlPervasives__output_string_1198-0x4
    1356:	66 2e 0f 1f 84 00 00 	nopw   %cs:0x0(%rax,%rax,1)
    135d:	00 00 00 

0000000000001360 <camlPervasives__prerr_bytes_1299>:
    1360:	48 89 c3             	mov    %rax,%rbx
    1363:	48 8b 05 00 00 00 00 	mov    0x0(%rip),%rax        # 136a <camlPervasives__prerr_bytes_1299+0xa>
			1366: R_X86_64_GOTPCREL	camlPervasives-0x4
    136a:	48 8b 80 c0 00 00 00 	mov    0xc0(%rax),%rax
    1371:	e9 00 00 00 00       	jmpq   1376 <camlPervasives__prerr_bytes_1299+0x16>
			1372: R_X86_64_PLT32	camlPervasives__output_bytes_1195-0x4
    1376:	66 2e 0f 1f 84 00 00 	nopw   %cs:0x0(%rax,%rax,1)
    137d:	00 00 00 

0000000000001380 <camlPervasives__prerr_int_1301>:
    1380:	48 83 ec 08          	sub    $0x8,%rsp
    1384:	e8 00 00 00 00       	callq  1389 <camlPervasives__prerr_int_1301+0x9>
			1385: R_X86_64_PLT32	camlPervasives__string_of_int_1143-0x4
    1389:	48 89 c3             	mov    %rax,%rbx
    138c:	48 8b 05 00 00 00 00 	mov    0x0(%rip),%rax        # 1393 <camlPervasives__prerr_int_1301+0x13>
			138f: R_X86_64_GOTPCREL	camlPervasives-0x4
    1393:	48 8b 80 c0 00 00 00 	mov    0xc0(%rax),%rax
    139a:	48 83 c4 08          	add    $0x8,%rsp
    139e:	e9 00 00 00 00       	jmpq   13a3 <camlPervasives__prerr_int_1301+0x23>
			139f: R_X86_64_PLT32	camlPervasives__output_string_1198-0x4
    13a3:	66 66 66 66 2e 0f 1f 	data32 data32 data32 nopw %cs:0x0(%rax,%rax,1)
    13aa:	84 00 00 00 00 00 

00000000000013b0 <camlPervasives__prerr_float_1303>:
    13b0:	48 83 ec 08          	sub    $0x8,%rsp
    13b4:	e8 00 00 00 00       	callq  13b9 <camlPervasives__prerr_float_1303+0x9>
			13b5: R_X86_64_PLT32	camlPervasives__string_of_float_1152-0x4
    13b9:	48 89 c3             	mov    %rax,%rbx
    13bc:	48 8b 05 00 00 00 00 	mov    0x0(%rip),%rax        # 13c3 <camlPervasives__prerr_float_1303+0x13>
			13bf: R_X86_64_GOTPCREL	camlPervasives-0x4
    13c3:	48 8b 80 c0 00 00 00 	mov    0xc0(%rax),%rax
    13ca:	48 83 c4 08          	add    $0x8,%rsp
    13ce:	e9 00 00 00 00       	jmpq   13d3 <camlPervasives__prerr_float_1303+0x23>
			13cf: R_X86_64_PLT32	camlPervasives__output_string_1198-0x4
    13d3:	66 66 66 66 2e 0f 1f 	data32 data32 data32 nopw %cs:0x0(%rax,%rax,1)
    13da:	84 00 00 00 00 00 

00000000000013e0 <camlPervasives__prerr_endline_1305>:
    13e0:	48 83 ec 08          	sub    $0x8,%rsp
    13e4:	48 89 c3             	mov    %rax,%rbx
    13e7:	48 8b 05 00 00 00 00 	mov    0x0(%rip),%rax        # 13ee <camlPervasives__prerr_endline_1305+0xe>
			13ea: R_X86_64_GOTPCREL	camlPervasives-0x4
    13ee:	48 8b 80 c0 00 00 00 	mov    0xc0(%rax),%rax
    13f5:	e8 00 00 00 00       	callq  13fa <camlPervasives__prerr_endline_1305+0x1a>
			13f6: R_X86_64_PLT32	camlPervasives__output_string_1198-0x4
    13fa:	48 c7 c6 15 00 00 00 	mov    $0x15,%rsi
    1401:	48 8b 05 00 00 00 00 	mov    0x0(%rip),%rax        # 1408 <camlPervasives__prerr_endline_1305+0x28>
			1404: R_X86_64_GOTPCREL	camlPervasives-0x4
    1408:	48 8b b8 c0 00 00 00 	mov    0xc0(%rax),%rdi
    140f:	48 8b 05 00 00 00 00 	mov    0x0(%rip),%rax        # 1416 <camlPervasives__prerr_endline_1305+0x36>
			1412: R_X86_64_GOTPCREL	caml_ml_output_char-0x4
    1416:	e8 00 00 00 00       	callq  141b <camlPervasives__prerr_endline_1305+0x3b>
			1417: R_X86_64_PLT32	caml_c_call-0x4
    141b:	4c 8b 1d 00 00 00 00 	mov    0x0(%rip),%r11        # 1422 <camlPervasives__prerr_endline_1305+0x42>
			141e: R_X86_64_GOTPCREL	caml_young_ptr-0x4
    1422:	4d 8b 3b             	mov    (%r11),%r15
    1425:	48 8b 05 00 00 00 00 	mov    0x0(%rip),%rax        # 142c <camlPervasives__prerr_endline_1305+0x4c>
			1428: R_X86_64_GOTPCREL	camlPervasives-0x4
    142c:	48 8b b8 c0 00 00 00 	mov    0xc0(%rax),%rdi
    1433:	48 8b 05 00 00 00 00 	mov    0x0(%rip),%rax        # 143a <camlPervasives__prerr_endline_1305+0x5a>
			1436: R_X86_64_GOTPCREL	caml_ml_flush-0x4
    143a:	e8 00 00 00 00       	callq  143f <camlPervasives__prerr_endline_1305+0x5f>
			143b: R_X86_64_PLT32	caml_c_call-0x4
    143f:	4c 8b 1d 00 00 00 00 	mov    0x0(%rip),%r11        # 1446 <camlPervasives__prerr_endline_1305+0x66>
			1442: R_X86_64_GOTPCREL	caml_young_ptr-0x4
    1446:	4d 8b 3b             	mov    (%r11),%r15
    1449:	48 83 c4 08          	add    $0x8,%rsp
    144d:	c3                   	retq   
    144e:	66 90                	xchg   %ax,%ax

0000000000001450 <camlPervasives__prerr_newline_1307>:
    1450:	48 83 ec 08          	sub    $0x8,%rsp
    1454:	48 c7 c6 15 00 00 00 	mov    $0x15,%rsi
    145b:	48 8b 05 00 00 00 00 	mov    0x0(%rip),%rax        # 1462 <camlPervasives__prerr_newline_1307+0x12>
			145e: R_X86_64_GOTPCREL	camlPervasives-0x4
    1462:	48 8b b8 c0 00 00 00 	mov    0xc0(%rax),%rdi
    1469:	48 8b 05 00 00 00 00 	mov    0x0(%rip),%rax        # 1470 <camlPervasives__prerr_newline_1307+0x20>
			146c: R_X86_64_GOTPCREL	caml_ml_output_char-0x4
    1470:	e8 00 00 00 00       	callq  1475 <camlPervasives__prerr_newline_1307+0x25>
			1471: R_X86_64_PLT32	caml_c_call-0x4
    1475:	4c 8b 1d 00 00 00 00 	mov    0x0(%rip),%r11        # 147c <camlPervasives__prerr_newline_1307+0x2c>
			1478: R_X86_64_GOTPCREL	caml_young_ptr-0x4
    147c:	4d 8b 3b             	mov    (%r11),%r15
    147f:	48 8b 05 00 00 00 00 	mov    0x0(%rip),%rax        # 1486 <camlPervasives__prerr_newline_1307+0x36>
			1482: R_X86_64_GOTPCREL	camlPervasives-0x4
    1486:	48 8b b8 c0 00 00 00 	mov    0xc0(%rax),%rdi
    148d:	48 8b 05 00 00 00 00 	mov    0x0(%rip),%rax        # 1494 <camlPervasives__prerr_newline_1307+0x44>
			1490: R_X86_64_GOTPCREL	caml_ml_flush-0x4
    1494:	e8 00 00 00 00       	callq  1499 <camlPervasives__prerr_newline_1307+0x49>
			1495: R_X86_64_PLT32	caml_c_call-0x4
    1499:	4c 8b 1d 00 00 00 00 	mov    0x0(%rip),%r11        # 14a0 <camlPervasives__prerr_newline_1307+0x50>
			149c: R_X86_64_GOTPCREL	caml_young_ptr-0x4
    14a0:	4d 8b 3b             	mov    (%r11),%r15
    14a3:	48 83 c4 08          	add    $0x8,%rsp
    14a7:	c3                   	retq   
    14a8:	0f 1f 84 00 00 00 00 	nopl   0x0(%rax,%rax,1)
    14af:	00 

00000000000014b0 <camlPervasives__read_line_1308>:
    14b0:	48 83 ec 08          	sub    $0x8,%rsp
    14b4:	48 8b 05 00 00 00 00 	mov    0x0(%rip),%rax        # 14bb <camlPervasives__read_line_1308+0xb>
			14b7: R_X86_64_GOTPCREL	camlPervasives-0x4
    14bb:	48 8b b8 b8 00 00 00 	mov    0xb8(%rax),%rdi
    14c2:	48 8b 05 00 00 00 00 	mov    0x0(%rip),%rax        # 14c9 <camlPervasives__read_line_1308+0x19>
			14c5: R_X86_64_GOTPCREL	caml_ml_flush-0x4
    14c9:	e8 00 00 00 00       	callq  14ce <camlPervasives__read_line_1308+0x1e>
			14ca: R_X86_64_PLT32	caml_c_call-0x4
    14ce:	4c 8b 1d 00 00 00 00 	mov    0x0(%rip),%r11        # 14d5 <camlPervasives__read_line_1308+0x25>
			14d1: R_X86_64_GOTPCREL	caml_young_ptr-0x4
    14d5:	4d 8b 3b             	mov    (%r11),%r15
    14d8:	48 8b 05 00 00 00 00 	mov    0x0(%rip),%rax        # 14df <camlPervasives__read_line_1308+0x2f>
			14db: R_X86_64_GOTPCREL	camlPervasives-0x4
    14df:	48 8b 80 b0 00 00 00 	mov    0xb0(%rax),%rax
    14e6:	48 83 c4 08          	add    $0x8,%rsp
    14ea:	e9 00 00 00 00       	jmpq   14ef <camlPervasives__read_line_1308+0x3f>
			14eb: R_X86_64_PLT32	camlPervasives__input_line_1257-0x4
    14ef:	90                   	nop

00000000000014f0 <camlPervasives__read_int_1309>:
    14f0:	48 83 ec 08          	sub    $0x8,%rsp
    14f4:	48 c7 c0 01 00 00 00 	mov    $0x1,%rax
    14fb:	e8 00 00 00 00       	callq  1500 <camlPervasives__read_int_1309+0x10>
			14fc: R_X86_64_PLT32	camlPervasives__read_line_1308-0x4
    1500:	48 89 c7             	mov    %rax,%rdi
    1503:	48 8b 05 00 00 00 00 	mov    0x0(%rip),%rax        # 150a <camlPervasives__read_int_1309+0x1a>
			1506: R_X86_64_GOTPCREL	caml_int_of_string-0x4
    150a:	e8 00 00 00 00       	callq  150f <camlPervasives__read_int_1309+0x1f>
			150b: R_X86_64_PLT32	caml_c_call-0x4
    150f:	4c 8b 1d 00 00 00 00 	mov    0x0(%rip),%r11        # 1516 <camlPervasives__read_int_1309+0x26>
			1512: R_X86_64_GOTPCREL	caml_young_ptr-0x4
    1516:	4d 8b 3b             	mov    (%r11),%r15
    1519:	48 83 c4 08          	add    $0x8,%rsp
    151d:	c3                   	retq   
    151e:	66 90                	xchg   %ax,%ax

0000000000001520 <camlPervasives__read_float_1310>:
    1520:	48 83 ec 08          	sub    $0x8,%rsp
    1524:	48 c7 c0 01 00 00 00 	mov    $0x1,%rax
    152b:	e8 00 00 00 00       	callq  1530 <camlPervasives__read_float_1310+0x10>
			152c: R_X86_64_PLT32	camlPervasives__read_line_1308-0x4
    1530:	48 89 c7             	mov    %rax,%rdi
    1533:	48 8b 05 00 00 00 00 	mov    0x0(%rip),%rax        # 153a <camlPervasives__read_float_1310+0x1a>
			1536: R_X86_64_GOTPCREL	caml_float_of_string-0x4
    153a:	e8 00 00 00 00       	callq  153f <camlPervasives__read_float_1310+0x1f>
			153b: R_X86_64_PLT32	caml_c_call-0x4
    153f:	4c 8b 1d 00 00 00 00 	mov    0x0(%rip),%r11        # 1546 <camlPervasives__read_float_1310+0x26>
			1542: R_X86_64_GOTPCREL	caml_young_ptr-0x4
    1546:	4d 8b 3b             	mov    (%r11),%r15
    1549:	48 83 c4 08          	add    $0x8,%rsp
    154d:	c3                   	retq   
    154e:	66 90                	xchg   %ax,%ax

0000000000001550 <camlPervasives__fun_1503>:
    1550:	48 83 ec 08          	sub    $0x8,%rsp
    1554:	48 89 c7             	mov    %rax,%rdi
    1557:	48 8b 05 00 00 00 00 	mov    0x0(%rip),%rax        # 155e <camlPervasives__fun_1503+0xe>
			155a: R_X86_64_GOTPCREL	caml_ml_channel_size_64-0x4
    155e:	e8 00 00 00 00       	callq  1563 <camlPervasives__fun_1503+0x13>
			155f: R_X86_64_PLT32	caml_c_call-0x4
    1563:	4c 8b 1d 00 00 00 00 	mov    0x0(%rip),%r11        # 156a <camlPervasives__fun_1503+0x1a>
			1566: R_X86_64_GOTPCREL	caml_young_ptr-0x4
    156a:	4d 8b 3b             	mov    (%r11),%r15
    156d:	48 83 c4 08          	add    $0x8,%rsp
    1571:	c3                   	retq   
    1572:	66 66 66 66 66 2e 0f 	data32 data32 data32 data32 nopw %cs:0x0(%rax,%rax,1)
    1579:	1f 84 00 00 00 00 00 

0000000000001580 <camlPervasives__fun_1501>:
    1580:	48 83 ec 08          	sub    $0x8,%rsp
    1584:	48 89 c7             	mov    %rax,%rdi
    1587:	48 8b 05 00 00 00 00 	mov    0x0(%rip),%rax        # 158e <camlPervasives__fun_1501+0xe>
			158a: R_X86_64_GOTPCREL	caml_ml_pos_in_64-0x4
    158e:	e8 00 00 00 00       	callq  1593 <camlPervasives__fun_1501+0x13>
			158f: R_X86_64_PLT32	caml_c_call-0x4
    1593:	4c 8b 1d 00 00 00 00 	mov    0x0(%rip),%r11        # 159a <camlPervasives__fun_1501+0x1a>
			1596: R_X86_64_GOTPCREL	caml_young_ptr-0x4
    159a:	4d 8b 3b             	mov    (%r11),%r15
    159d:	48 83 c4 08          	add    $0x8,%rsp
    15a1:	c3                   	retq   
    15a2:	66 66 66 66 66 2e 0f 	data32 data32 data32 data32 nopw %cs:0x0(%rax,%rax,1)
    15a9:	1f 84 00 00 00 00 00 

00000000000015b0 <camlPervasives__fun_1499>:
    15b0:	48 83 ec 08          	sub    $0x8,%rsp
    15b4:	48 89 c7             	mov    %rax,%rdi
    15b7:	48 89 de             	mov    %rbx,%rsi
    15ba:	48 8b 05 00 00 00 00 	mov    0x0(%rip),%rax        # 15c1 <camlPervasives__fun_1499+0x11>
			15bd: R_X86_64_GOTPCREL	caml_ml_seek_in_64-0x4
    15c1:	e8 00 00 00 00       	callq  15c6 <camlPervasives__fun_1499+0x16>
			15c2: R_X86_64_PLT32	caml_c_call-0x4
    15c6:	4c 8b 1d 00 00 00 00 	mov    0x0(%rip),%r11        # 15cd <camlPervasives__fun_1499+0x1d>
			15c9: R_X86_64_GOTPCREL	caml_young_ptr-0x4
    15cd:	4d 8b 3b             	mov    (%r11),%r15
    15d0:	48 83 c4 08          	add    $0x8,%rsp
    15d4:	c3                   	retq   
    15d5:	66 66 2e 0f 1f 84 00 	data32 nopw %cs:0x0(%rax,%rax,1)
    15dc:	00 00 00 00 

00000000000015e0 <camlPervasives__fun_1497>:
    15e0:	48 83 ec 08          	sub    $0x8,%rsp
    15e4:	48 89 c7             	mov    %rax,%rdi
    15e7:	48 8b 05 00 00 00 00 	mov    0x0(%rip),%rax        # 15ee <camlPervasives__fun_1497+0xe>
			15ea: R_X86_64_GOTPCREL	caml_ml_channel_size_64-0x4
    15ee:	e8 00 00 00 00       	callq  15f3 <camlPervasives__fun_1497+0x13>
			15ef: R_X86_64_PLT32	caml_c_call-0x4
    15f3:	4c 8b 1d 00 00 00 00 	mov    0x0(%rip),%r11        # 15fa <camlPervasives__fun_1497+0x1a>
			15f6: R_X86_64_GOTPCREL	caml_young_ptr-0x4
    15fa:	4d 8b 3b             	mov    (%r11),%r15
    15fd:	48 83 c4 08          	add    $0x8,%rsp
    1601:	c3                   	retq   
    1602:	66 66 66 66 66 2e 0f 	data32 data32 data32 data32 nopw %cs:0x0(%rax,%rax,1)
    1609:	1f 84 00 00 00 00 00 

0000000000001610 <camlPervasives__fun_1495>:
    1610:	48 83 ec 08          	sub    $0x8,%rsp
    1614:	48 89 c7             	mov    %rax,%rdi
    1617:	48 8b 05 00 00 00 00 	mov    0x0(%rip),%rax        # 161e <camlPervasives__fun_1495+0xe>
			161a: R_X86_64_GOTPCREL	caml_ml_pos_out_64-0x4
    161e:	e8 00 00 00 00       	callq  1623 <camlPervasives__fun_1495+0x13>
			161f: R_X86_64_PLT32	caml_c_call-0x4
    1623:	4c 8b 1d 00 00 00 00 	mov    0x0(%rip),%r11        # 162a <camlPervasives__fun_1495+0x1a>
			1626: R_X86_64_GOTPCREL	caml_young_ptr-0x4
    162a:	4d 8b 3b             	mov    (%r11),%r15
    162d:	48 83 c4 08          	add    $0x8,%rsp
    1631:	c3                   	retq   
    1632:	66 66 66 66 66 2e 0f 	data32 data32 data32 data32 nopw %cs:0x0(%rax,%rax,1)
    1639:	1f 84 00 00 00 00 00 

0000000000001640 <camlPervasives__fun_1493>:
    1640:	48 83 ec 08          	sub    $0x8,%rsp
    1644:	48 89 c7             	mov    %rax,%rdi
    1647:	48 89 de             	mov    %rbx,%rsi
    164a:	48 8b 05 00 00 00 00 	mov    0x0(%rip),%rax        # 1651 <camlPervasives__fun_1493+0x11>
			164d: R_X86_64_GOTPCREL	caml_ml_seek_out_64-0x4
    1651:	e8 00 00 00 00       	callq  1656 <camlPervasives__fun_1493+0x16>
			1652: R_X86_64_PLT32	caml_c_call-0x4
    1656:	4c 8b 1d 00 00 00 00 	mov    0x0(%rip),%r11        # 165d <camlPervasives__fun_1493+0x1d>
			1659: R_X86_64_GOTPCREL	caml_young_ptr-0x4
    165d:	4d 8b 3b             	mov    (%r11),%r15
    1660:	48 83 c4 08          	add    $0x8,%rsp
    1664:	c3                   	retq   
    1665:	66 66 2e 0f 1f 84 00 	data32 nopw %cs:0x0(%rax,%rax,1)
    166c:	00 00 00 00 

0000000000001670 <camlPervasives__string_of_format_1322>:
    1670:	48 8b 40 08          	mov    0x8(%rax),%rax
    1674:	c3                   	retq   
    1675:	66 66 2e 0f 1f 84 00 	data32 nopw %cs:0x0(%rax,%rax,1)
    167c:	00 00 00 00 

0000000000001680 <camlPervasives__$5e$5e_1326>:
    1680:	48 83 ec 18          	sub    $0x18,%rsp
    1684:	48 89 44 24 08       	mov    %rax,0x8(%rsp)
    1689:	48 89 1c 24          	mov    %rbx,(%rsp)
    168d:	48 8b 5b 08          	mov    0x8(%rbx),%rbx
    1691:	48 8b 05 00 00 00 00 	mov    0x0(%rip),%rax        # 1698 <camlPervasives__$5e$5e_1326+0x18>
			1694: R_X86_64_GOTPCREL	camlPervasives__33-0x4
    1698:	e8 00 00 00 00       	callq  169d <camlPervasives__$5e$5e_1326+0x1d>
			1699: R_X86_64_PLT32	camlPervasives__$5e_1118-0x4
    169d:	48 89 c3             	mov    %rax,%rbx
    16a0:	48 8b 44 24 08       	mov    0x8(%rsp),%rax
    16a5:	48 8b 40 08          	mov    0x8(%rax),%rax
    16a9:	e8 00 00 00 00       	callq  16ae <camlPervasives__$5e$5e_1326+0x2e>
			16aa: R_X86_64_PLT32	camlPervasives__$5e_1118-0x4
    16ae:	48 89 44 24 10       	mov    %rax,0x10(%rsp)
    16b3:	48 8b 04 24          	mov    (%rsp),%rax
    16b7:	48 8b 18             	mov    (%rax),%rbx
    16ba:	48 8b 44 24 08       	mov    0x8(%rsp),%rax
    16bf:	48 8b 00             	mov    (%rax),%rax
    16c2:	e8 00 00 00 00       	callq  16c7 <camlPervasives__$5e$5e_1326+0x47>
			16c3: R_X86_64_PLT32	camlCamlinternalFormatBasics__concat_fmt_1331-0x4
    16c7:	48 89 c3             	mov    %rax,%rbx
    16ca:	49 83 ef 18          	sub    $0x18,%r15
    16ce:	48 8b 05 00 00 00 00 	mov    0x0(%rip),%rax        # 16d5 <camlPervasives__$5e$5e_1326+0x55>
			16d1: R_X86_64_GOTPCREL	caml_young_limit-0x4
    16d5:	4c 3b 38             	cmp    (%rax),%r15
    16d8:	72 1d                	jb     16f7 <camlPervasives__$5e$5e_1326+0x77>
    16da:	49 8d 47 08          	lea    0x8(%r15),%rax
    16de:	48 c7 40 f8 00 08 00 	movq   $0x800,-0x8(%rax)
    16e5:	00 
    16e6:	48 89 18             	mov    %rbx,(%rax)
    16e9:	48 8b 5c 24 10       	mov    0x10(%rsp),%rbx
    16ee:	48 89 58 08          	mov    %rbx,0x8(%rax)
    16f2:	48 83 c4 18          	add    $0x18,%rsp
    16f6:	c3                   	retq   
    16f7:	e8 00 00 00 00       	callq  16fc <camlPervasives__$5e$5e_1326+0x7c>
			16f8: R_X86_64_PLT32	caml_call_gc-0x4
    16fc:	eb cc                	jmp    16ca <camlPervasives__$5e$5e_1326+0x4a>
    16fe:	66 90                	xchg   %ax,%ax

0000000000001700 <camlPervasives__at_exit_1333>:
    1700:	48 83 ec 08          	sub    $0x8,%rsp
    1704:	48 89 c3             	mov    %rax,%rbx
    1707:	48 8b 05 00 00 00 00 	mov    0x0(%rip),%rax        # 170e <camlPervasives__at_exit_1333+0xe>
			170a: R_X86_64_GOTPCREL	camlPervasives-0x4
    170e:	48 8b 80 b0 02 00 00 	mov    0x2b0(%rax),%rax
    1715:	48 8b 38             	mov    (%rax),%rdi
    1718:	49 83 ef 28          	sub    $0x28,%r15
    171c:	48 8b 05 00 00 00 00 	mov    0x0(%rip),%rax        # 1723 <camlPervasives__at_exit_1333+0x23>
			171f: R_X86_64_GOTPCREL	caml_young_limit-0x4
    1723:	4c 3b 38             	cmp    (%rax),%r15
    1726:	72 45                	jb     176d <camlPervasives__at_exit_1333+0x6d>
    1728:	49 8d 77 08          	lea    0x8(%r15),%rsi
    172c:	48 c7 46 f8 f7 10 00 	movq   $0x10f7,-0x8(%rsi)
    1733:	00 
    1734:	48 8b 05 00 00 00 00 	mov    0x0(%rip),%rax        # 173b <camlPervasives__at_exit_1333+0x3b>
			1737: R_X86_64_GOTPCREL	camlPervasives__fun_1508-0x4
    173b:	48 89 06             	mov    %rax,(%rsi)
    173e:	48 c7 46 08 03 00 00 	movq   $0x3,0x8(%rsi)
    1745:	00 
    1746:	48 89 5e 10          	mov    %rbx,0x10(%rsi)
    174a:	48 89 7e 18          	mov    %rdi,0x18(%rsi)
    174e:	48 8b 05 00 00 00 00 	mov    0x0(%rip),%rax        # 1755 <camlPervasives__at_exit_1333+0x55>
			1751: R_X86_64_GOTPCREL	camlPervasives-0x4
    1755:	48 8b b8 b0 02 00 00 	mov    0x2b0(%rax),%rdi
    175c:	e8 00 00 00 00       	callq  1761 <camlPervasives__at_exit_1333+0x61>
			175d: R_X86_64_PLT32	caml_modify-0x4
    1761:	48 c7 c0 01 00 00 00 	mov    $0x1,%rax
    1768:	48 83 c4 08          	add    $0x8,%rsp
    176c:	c3                   	retq   
    176d:	e8 00 00 00 00       	callq  1772 <camlPervasives__at_exit_1333+0x72>
			176e: R_X86_64_PLT32	caml_call_gc-0x4
    1772:	eb a4                	jmp    1718 <camlPervasives__at_exit_1333+0x18>
    1774:	66 66 66 2e 0f 1f 84 	data32 data32 nopw %cs:0x0(%rax,%rax,1)
    177b:	00 00 00 00 00 

0000000000001780 <camlPervasives__do_at_exit_1336>:
    1780:	48 8b 05 00 00 00 00 	mov    0x0(%rip),%rax        # 1787 <camlPervasives__do_at_exit_1336+0x7>
			1783: R_X86_64_GOTPCREL	camlPervasives-0x4
    1787:	48 8b 80 b0 02 00 00 	mov    0x2b0(%rax),%rax
    178e:	48 8b 18             	mov    (%rax),%rbx
    1791:	48 c7 c0 01 00 00 00 	mov    $0x1,%rax
    1798:	48 8b 3b             	mov    (%rbx),%rdi
    179b:	ff e7                	jmpq   *%rdi
    179d:	0f 1f 00             	nopl   (%rax)

00000000000017a0 <camlPervasives__exit_1337>:
    17a0:	48 83 ec 08          	sub    $0x8,%rsp
    17a4:	48 89 04 24          	mov    %rax,(%rsp)
    17a8:	48 8b 05 00 00 00 00 	mov    0x0(%rip),%rax        # 17af <camlPervasives__exit_1337+0xf>
			17ab: R_X86_64_GOTPCREL	camlPervasives-0x4
    17af:	48 8b 80 b0 02 00 00 	mov    0x2b0(%rax),%rax
    17b6:	48 8b 18             	mov    (%rax),%rbx
    17b9:	48 c7 c0 01 00 00 00 	mov    $0x1,%rax
    17c0:	48 8b 3b             	mov    (%rbx),%rdi
    17c3:	ff d7                	callq  *%rdi
    17c5:	48 8b 3c 24          	mov    (%rsp),%rdi
    17c9:	48 8b 05 00 00 00 00 	mov    0x0(%rip),%rax        # 17d0 <camlPervasives__exit_1337+0x30>
			17cc: R_X86_64_GOTPCREL	caml_sys_exit-0x4
    17d0:	e8 00 00 00 00       	callq  17d5 <camlPervasives__exit_1337+0x35>
			17d1: R_X86_64_PLT32	caml_c_call-0x4
    17d5:	4c 8b 1d 00 00 00 00 	mov    0x0(%rip),%r11        # 17dc <camlPervasives__exit_1337+0x3c>
			17d8: R_X86_64_GOTPCREL	caml_young_ptr-0x4
    17dc:	4d 8b 3b             	mov    (%r11),%r15
    17df:	48 83 c4 08          	add    $0x8,%rsp
    17e3:	c3                   	retq   
    17e4:	66 66 66 2e 0f 1f 84 	data32 data32 nopw %cs:0x0(%rax,%rax,1)
    17eb:	00 00 00 00 00 

00000000000017f0 <camlPervasives__entry>:
    17f0:	48 83 ec 08          	sub    $0x8,%rsp
    17f4:	48 8b 05 00 00 00 00 	mov    0x0(%rip),%rax        # 17fb <camlPervasives__entry+0xb>
			17f7: R_X86_64_GOTPCREL	camlPervasives-0x4
    17fb:	48 8b 1d 00 00 00 00 	mov    0x0(%rip),%rbx        # 1802 <camlPervasives__entry+0x12>
			17fe: R_X86_64_GOTPCREL	camlPervasives__113-0x4
    1802:	48 89 98 68 02 00 00 	mov    %rbx,0x268(%rax)
    1809:	48 8b 1d 00 00 00 00 	mov    0x0(%rip),%rbx        # 1810 <camlPervasives__entry+0x20>
			180c: R_X86_64_GOTPCREL	camlPervasives__112-0x4
    1810:	48 89 98 58 02 00 00 	mov    %rbx,0x258(%rax)
    1817:	48 8b 1d 00 00 00 00 	mov    0x0(%rip),%rbx        # 181e <camlPervasives__entry+0x2e>
			181a: R_X86_64_GOTPCREL	camlPervasives__111-0x4
    181e:	48 89 98 50 02 00 00 	mov    %rbx,0x250(%rax)
    1825:	48 8b 1d 00 00 00 00 	mov    0x0(%rip),%rbx        # 182c <camlPervasives__entry+0x3c>
			1828: R_X86_64_GOTPCREL	camlPervasives__110-0x4
    182c:	48 89 98 48 02 00 00 	mov    %rbx,0x248(%rax)
    1833:	48 8b 1d 00 00 00 00 	mov    0x0(%rip),%rbx        # 183a <camlPervasives__entry+0x4a>
			1836: R_X86_64_GOTPCREL	camlPervasives__109-0x4
    183a:	48 89 98 40 02 00 00 	mov    %rbx,0x240(%rax)
    1841:	48 8b 1d 00 00 00 00 	mov    0x0(%rip),%rbx        # 1848 <camlPervasives__entry+0x58>
			1844: R_X86_64_GOTPCREL	camlPervasives__108-0x4
    1848:	48 89 98 38 02 00 00 	mov    %rbx,0x238(%rax)
    184f:	48 8b 1d 00 00 00 00 	mov    0x0(%rip),%rbx        # 1856 <camlPervasives__entry+0x66>
			1852: R_X86_64_GOTPCREL	camlPervasives__107-0x4
    1856:	48 89 98 30 02 00 00 	mov    %rbx,0x230(%rax)
    185d:	48 8b 1d 00 00 00 00 	mov    0x0(%rip),%rbx        # 1864 <camlPervasives__entry+0x74>
			1860: R_X86_64_GOTPCREL	camlPervasives__106-0x4
    1864:	48 89 98 28 02 00 00 	mov    %rbx,0x228(%rax)
    186b:	48 8b 1d 00 00 00 00 	mov    0x0(%rip),%rbx        # 1872 <camlPervasives__entry+0x82>
			186e: R_X86_64_GOTPCREL	camlPervasives__105-0x4
    1872:	48 89 98 00 02 00 00 	mov    %rbx,0x200(%rax)
    1879:	48 8b 1d 00 00 00 00 	mov    0x0(%rip),%rbx        # 1880 <camlPervasives__entry+0x90>
			187c: R_X86_64_GOTPCREL	camlPervasives__104-0x4
    1880:	48 89 98 e0 01 00 00 	mov    %rbx,0x1e0(%rax)
    1887:	48 8b 1d 00 00 00 00 	mov    0x0(%rip),%rbx        # 188e <camlPervasives__entry+0x9e>
			188a: R_X86_64_GOTPCREL	camlPervasives__103-0x4
    188e:	48 89 98 c8 01 00 00 	mov    %rbx,0x1c8(%rax)
    1895:	48 8b 1d 00 00 00 00 	mov    0x0(%rip),%rbx        # 189c <camlPervasives__entry+0xac>
			1898: R_X86_64_GOTPCREL	camlPervasives__102-0x4
    189c:	48 89 98 c0 01 00 00 	mov    %rbx,0x1c0(%rax)
    18a3:	48 8b 1d 00 00 00 00 	mov    0x0(%rip),%rbx        # 18aa <camlPervasives__entry+0xba>
			18a6: R_X86_64_GOTPCREL	camlPervasives__101-0x4
    18aa:	48 89 98 b8 01 00 00 	mov    %rbx,0x1b8(%rax)
    18b1:	48 8b 1d 00 00 00 00 	mov    0x0(%rip),%rbx        # 18b8 <camlPervasives__entry+0xc8>
			18b4: R_X86_64_GOTPCREL	camlPervasives__100-0x4
    18b8:	48 89 98 a8 01 00 00 	mov    %rbx,0x1a8(%rax)
    18bf:	48 8b 1d 00 00 00 00 	mov    0x0(%rip),%rbx        # 18c6 <camlPervasives__entry+0xd6>
			18c2: R_X86_64_GOTPCREL	camlPervasives__99-0x4
    18c6:	48 89 98 a0 01 00 00 	mov    %rbx,0x1a0(%rax)
    18cd:	48 8b 1d 00 00 00 00 	mov    0x0(%rip),%rbx        # 18d4 <camlPervasives__entry+0xe4>
			18d0: R_X86_64_GOTPCREL	camlPervasives__98-0x4
    18d4:	48 89 98 78 01 00 00 	mov    %rbx,0x178(%rax)
    18db:	48 8b 1d 00 00 00 00 	mov    0x0(%rip),%rbx        # 18e2 <camlPervasives__entry+0xf2>
			18de: R_X86_64_GOTPCREL	camlPervasives__97-0x4
    18e2:	48 89 98 68 01 00 00 	mov    %rbx,0x168(%rax)
    18e9:	e8 00 00 00 00       	callq  18ee <camlPervasives__entry+0xfe>
			18ea: R_X86_64_PLT32	caml_alloc2-0x4
    18ee:	49 8d 77 08          	lea    0x8(%r15),%rsi
    18f2:	48 c7 46 f8 00 08 00 	movq   $0x800,-0x8(%rsi)
    18f9:	00 
    18fa:	48 8b 05 00 00 00 00 	mov    0x0(%rip),%rax        # 1901 <camlPervasives__entry+0x111>
			18fd: R_X86_64_GOTPCREL	caml_exn_Invalid_argument-0x4
    1901:	48 89 06             	mov    %rax,(%rsi)
    1904:	48 8b 05 00 00 00 00 	mov    0x0(%rip),%rax        # 190b <camlPervasives__entry+0x11b>
			1907: R_X86_64_GOTPCREL	camlPervasives__2-0x4
    190b:	48 89 46 08          	mov    %rax,0x8(%rsi)
    190f:	48 8b 3d 00 00 00 00 	mov    0x0(%rip),%rdi        # 1916 <camlPervasives__entry+0x126>
			1912: R_X86_64_GOTPCREL	camlPervasives__1-0x4
    1916:	48 8b 05 00 00 00 00 	mov    0x0(%rip),%rax        # 191d <camlPervasives__entry+0x12d>
			1919: R_X86_64_GOTPCREL	caml_register_named_value-0x4
    191d:	e8 00 00 00 00       	callq  1922 <camlPervasives__entry+0x132>
			191e: R_X86_64_PLT32	caml_c_call-0x4
    1922:	4c 8b 1d 00 00 00 00 	mov    0x0(%rip),%r11        # 1929 <camlPervasives__entry+0x139>
			1925: R_X86_64_GOTPCREL	caml_young_ptr-0x4
    1929:	4d 8b 3b             	mov    (%r11),%r15
    192c:	48 8b 05 00 00 00 00 	mov    0x0(%rip),%rax        # 1933 <camlPervasives__entry+0x143>
			192f: R_X86_64_GOTPCREL	camlPervasives__96-0x4
    1933:	48 8b 1d 00 00 00 00 	mov    0x0(%rip),%rbx        # 193a <camlPervasives__entry+0x14a>
			1936: R_X86_64_GOTPCREL	camlPervasives-0x4
    193a:	48 89 43 08          	mov    %rax,0x8(%rbx)
    193e:	48 8b 05 00 00 00 00 	mov    0x0(%rip),%rax        # 1945 <camlPervasives__entry+0x155>
			1941: R_X86_64_GOTPCREL	camlPervasives__95-0x4
    1945:	48 89 03             	mov    %rax,(%rbx)
    1948:	e8 00 00 00 00       	callq  194d <camlPervasives__entry+0x15d>
			1949: R_X86_64_PLT32	caml_alloc2-0x4
    194d:	49 8d 7f 08          	lea    0x8(%r15),%rdi
    1951:	48 c7 47 f8 f8 08 00 	movq   $0x8f8,-0x8(%rdi)
    1958:	00 
    1959:	48 8b 05 00 00 00 00 	mov    0x0(%rip),%rax        # 1960 <camlPervasives__entry+0x170>
			195c: R_X86_64_GOTPCREL	camlPervasives__3-0x4
    1960:	48 89 07             	mov    %rax,(%rdi)
    1963:	48 c7 47 08 01 00 00 	movq   $0x1,0x8(%rdi)
    196a:	00 
    196b:	e8 00 00 00 00       	callq  1970 <camlPervasives__entry+0x180>
			196c: R_X86_64_PLT32	caml_set_oo_id-0x4
    1970:	48 8b 1d 00 00 00 00 	mov    0x0(%rip),%rbx        # 1977 <camlPervasives__entry+0x187>
			1973: R_X86_64_GOTPCREL	camlPervasives-0x4
    1977:	48 89 43 10          	mov    %rax,0x10(%rbx)
    197b:	48 8b 05 00 00 00 00 	mov    0x0(%rip),%rax        # 1982 <camlPervasives__entry+0x192>
			197e: R_X86_64_GOTPCREL	camlPervasives__94-0x4
    1982:	48 89 43 18          	mov    %rax,0x18(%rbx)
    1986:	48 8b 05 00 00 00 00 	mov    0x0(%rip),%rax        # 198d <camlPervasives__entry+0x19d>
			1989: R_X86_64_GOTPCREL	camlPervasives__93-0x4
    198d:	48 89 43 20          	mov    %rax,0x20(%rbx)
    1991:	48 8b 05 00 00 00 00 	mov    0x0(%rip),%rax        # 1998 <camlPervasives__entry+0x1a8>
			1994: R_X86_64_GOTPCREL	camlPervasives__92-0x4
    1998:	48 89 43 28          	mov    %rax,0x28(%rbx)
    199c:	48 8b 05 00 00 00 00 	mov    0x0(%rip),%rax        # 19a3 <camlPervasives__entry+0x1b3>
			199f: R_X86_64_GOTPCREL	camlPervasives__91-0x4
    19a3:	48 89 43 40          	mov    %rax,0x40(%rbx)
    19a7:	48 b8 ff ff ff ff ff 	mov    $0x7fffffffffffffff,%rax
    19ae:	ff ff 7f 
    19b1:	48 89 43 30          	mov    %rax,0x30(%rbx)
    19b5:	48 b8 01 00 00 00 00 	mov    $0x8000000000000001,%rax
    19bc:	00 00 80 
    19bf:	48 89 43 38          	mov    %rax,0x38(%rbx)
    19c3:	48 8b 3d 00 00 00 00 	mov    0x0(%rip),%rdi        # 19ca <camlPervasives__entry+0x1da>
			19c6: R_X86_64_GOTPCREL	camlPervasives__4-0x4
    19ca:	48 8b 05 00 00 00 00 	mov    0x0(%rip),%rax        # 19d1 <camlPervasives__entry+0x1e1>
			19cd: R_X86_64_GOTPCREL	caml_int64_float_of_bits-0x4
    19d1:	e8 00 00 00 00       	callq  19d6 <camlPervasives__entry+0x1e6>
			19d2: R_X86_64_PLT32	caml_c_call-0x4
    19d6:	4c 8b 1d 00 00 00 00 	mov    0x0(%rip),%r11        # 19dd <camlPervasives__entry+0x1ed>
			19d9: R_X86_64_GOTPCREL	caml_young_ptr-0x4
    19dd:	4d 8b 3b             	mov    (%r11),%r15
    19e0:	48 8b 1d 00 00 00 00 	mov    0x0(%rip),%rbx        # 19e7 <camlPervasives__entry+0x1f7>
			19e3: R_X86_64_GOTPCREL	camlPervasives-0x4
    19e7:	48 89 43 48          	mov    %rax,0x48(%rbx)
    19eb:	48 8b 3d 00 00 00 00 	mov    0x0(%rip),%rdi        # 19f2 <camlPervasives__entry+0x202>
			19ee: R_X86_64_GOTPCREL	camlPervasives__5-0x4
    19f2:	48 8b 05 00 00 00 00 	mov    0x0(%rip),%rax        # 19f9 <camlPervasives__entry+0x209>
			19f5: R_X86_64_GOTPCREL	caml_int64_float_of_bits-0x4
    19f9:	e8 00 00 00 00       	callq  19fe <camlPervasives__entry+0x20e>
			19fa: R_X86_64_PLT32	caml_c_call-0x4
    19fe:	4c 8b 1d 00 00 00 00 	mov    0x0(%rip),%r11        # 1a05 <camlPervasives__entry+0x215>
			1a01: R_X86_64_GOTPCREL	caml_young_ptr-0x4
    1a05:	4d 8b 3b             	mov    (%r11),%r15
    1a08:	48 8b 1d 00 00 00 00 	mov    0x0(%rip),%rbx        # 1a0f <camlPervasives__entry+0x21f>
			1a0b: R_X86_64_GOTPCREL	camlPervasives-0x4
    1a0f:	48 89 43 50          	mov    %rax,0x50(%rbx)
    1a13:	48 8b 3d 00 00 00 00 	mov    0x0(%rip),%rdi        # 1a1a <camlPervasives__entry+0x22a>
			1a16: R_X86_64_GOTPCREL	camlPervasives__6-0x4
    1a1a:	48 8b 05 00 00 00 00 	mov    0x0(%rip),%rax        # 1a21 <camlPervasives__entry+0x231>
			1a1d: R_X86_64_GOTPCREL	caml_int64_float_of_bits-0x4
    1a21:	e8 00 00 00 00       	callq  1a26 <camlPervasives__entry+0x236>
			1a22: R_X86_64_PLT32	caml_c_call-0x4
    1a26:	4c 8b 1d 00 00 00 00 	mov    0x0(%rip),%r11        # 1a2d <camlPervasives__entry+0x23d>
			1a29: R_X86_64_GOTPCREL	caml_young_ptr-0x4
    1a2d:	4d 8b 3b             	mov    (%r11),%r15
    1a30:	48 8b 1d 00 00 00 00 	mov    0x0(%rip),%rbx        # 1a37 <camlPervasives__entry+0x247>
			1a33: R_X86_64_GOTPCREL	camlPervasives-0x4
    1a37:	48 89 43 58          	mov    %rax,0x58(%rbx)
    1a3b:	48 8b 3d 00 00 00 00 	mov    0x0(%rip),%rdi        # 1a42 <camlPervasives__entry+0x252>
			1a3e: R_X86_64_GOTPCREL	camlPervasives__7-0x4
    1a42:	48 8b 05 00 00 00 00 	mov    0x0(%rip),%rax        # 1a49 <camlPervasives__entry+0x259>
			1a45: R_X86_64_GOTPCREL	caml_int64_float_of_bits-0x4
    1a49:	e8 00 00 00 00       	callq  1a4e <camlPervasives__entry+0x25e>
			1a4a: R_X86_64_PLT32	caml_c_call-0x4
    1a4e:	4c 8b 1d 00 00 00 00 	mov    0x0(%rip),%r11        # 1a55 <camlPervasives__entry+0x265>
			1a51: R_X86_64_GOTPCREL	caml_young_ptr-0x4
    1a55:	4d 8b 3b             	mov    (%r11),%r15
    1a58:	48 8b 1d 00 00 00 00 	mov    0x0(%rip),%rbx        # 1a5f <camlPervasives__entry+0x26f>
			1a5b: R_X86_64_GOTPCREL	camlPervasives-0x4
    1a5f:	48 89 43 60          	mov    %rax,0x60(%rbx)
    1a63:	48 8b 3d 00 00 00 00 	mov    0x0(%rip),%rdi        # 1a6a <camlPervasives__entry+0x27a>
			1a66: R_X86_64_GOTPCREL	camlPervasives__8-0x4
    1a6a:	48 8b 05 00 00 00 00 	mov    0x0(%rip),%rax        # 1a71 <camlPervasives__entry+0x281>
			1a6d: R_X86_64_GOTPCREL	caml_int64_float_of_bits-0x4
    1a71:	e8 00 00 00 00       	callq  1a76 <camlPervasives__entry+0x286>
			1a72: R_X86_64_PLT32	caml_c_call-0x4
    1a76:	4c 8b 1d 00 00 00 00 	mov    0x0(%rip),%r11        # 1a7d <camlPervasives__entry+0x28d>
			1a79: R_X86_64_GOTPCREL	caml_young_ptr-0x4
    1a7d:	4d 8b 3b             	mov    (%r11),%r15
    1a80:	48 8b 1d 00 00 00 00 	mov    0x0(%rip),%rbx        # 1a87 <camlPervasives__entry+0x297>
			1a83: R_X86_64_GOTPCREL	camlPervasives-0x4
    1a87:	48 89 43 68          	mov    %rax,0x68(%rbx)
    1a8b:	48 8b 3d 00 00 00 00 	mov    0x0(%rip),%rdi        # 1a92 <camlPervasives__entry+0x2a2>
			1a8e: R_X86_64_GOTPCREL	camlPervasives__9-0x4
    1a92:	48 8b 05 00 00 00 00 	mov    0x0(%rip),%rax        # 1a99 <camlPervasives__entry+0x2a9>
			1a95: R_X86_64_GOTPCREL	caml_int64_float_of_bits-0x4
    1a99:	e8 00 00 00 00       	callq  1a9e <camlPervasives__entry+0x2ae>
			1a9a: R_X86_64_PLT32	caml_c_call-0x4
    1a9e:	4c 8b 1d 00 00 00 00 	mov    0x0(%rip),%r11        # 1aa5 <camlPervasives__entry+0x2b5>
			1aa1: R_X86_64_GOTPCREL	caml_young_ptr-0x4
    1aa5:	4d 8b 3b             	mov    (%r11),%r15
    1aa8:	48 8b 1d 00 00 00 00 	mov    0x0(%rip),%rbx        # 1aaf <camlPervasives__entry+0x2bf>
			1aab: R_X86_64_GOTPCREL	camlPervasives-0x4
    1aaf:	48 89 43 70          	mov    %rax,0x70(%rbx)
    1ab3:	48 8b 05 00 00 00 00 	mov    0x0(%rip),%rax        # 1aba <camlPervasives__entry+0x2ca>
			1ab6: R_X86_64_GOTPCREL	camlPervasives__90-0x4
    1aba:	48 89 43 78          	mov    %rax,0x78(%rbx)
    1abe:	48 8b 05 00 00 00 00 	mov    0x0(%rip),%rax        # 1ac5 <camlPervasives__entry+0x2d5>
			1ac1: R_X86_64_GOTPCREL	camlPervasives__89-0x4
    1ac5:	48 89 83 80 00 00 00 	mov    %rax,0x80(%rbx)
    1acc:	48 8b 05 00 00 00 00 	mov    0x0(%rip),%rax        # 1ad3 <camlPervasives__entry+0x2e3>
			1acf: R_X86_64_GOTPCREL	camlPervasives__88-0x4
    1ad3:	48 89 83 88 00 00 00 	mov    %rax,0x88(%rbx)
    1ada:	48 8b 05 00 00 00 00 	mov    0x0(%rip),%rax        # 1ae1 <camlPervasives__entry+0x2f1>
			1add: R_X86_64_GOTPCREL	camlPervasives__87-0x4
    1ae1:	48 89 83 90 00 00 00 	mov    %rax,0x90(%rbx)
    1ae8:	48 8b 05 00 00 00 00 	mov    0x0(%rip),%rax        # 1aef <camlPervasives__entry+0x2ff>
			1aeb: R_X86_64_GOTPCREL	camlPervasives__86-0x4
    1aef:	48 89 83 98 00 00 00 	mov    %rax,0x98(%rbx)
    1af6:	48 8b 05 00 00 00 00 	mov    0x0(%rip),%rax        # 1afd <camlPervasives__entry+0x30d>
			1af9: R_X86_64_GOTPCREL	camlPervasives__85-0x4
    1afd:	48 89 83 98 02 00 00 	mov    %rax,0x298(%rbx)
    1b04:	48 8b 05 00 00 00 00 	mov    0x0(%rip),%rax        # 1b0b <camlPervasives__entry+0x31b>
			1b07: R_X86_64_GOTPCREL	camlPervasives__84-0x4
    1b0b:	48 89 83 a0 00 00 00 	mov    %rax,0xa0(%rbx)
    1b12:	48 8b 05 00 00 00 00 	mov    0x0(%rip),%rax        # 1b19 <camlPervasives__entry+0x329>
			1b15: R_X86_64_GOTPCREL	camlPervasives__83-0x4
    1b19:	48 89 83 a8 00 00 00 	mov    %rax,0xa8(%rbx)
    1b20:	48 c7 c7 01 00 00 00 	mov    $0x1,%rdi
    1b27:	48 8b 05 00 00 00 00 	mov    0x0(%rip),%rax        # 1b2e <camlPervasives__entry+0x33e>
			1b2a: R_X86_64_GOTPCREL	caml_ml_open_descriptor_in-0x4
    1b2e:	e8 00 00 00 00       	callq  1b33 <camlPervasives__entry+0x343>
			1b2f: R_X86_64_PLT32	caml_c_call-0x4
    1b33:	4c 8b 1d 00 00 00 00 	mov    0x0(%rip),%r11        # 1b3a <camlPervasives__entry+0x34a>
			1b36: R_X86_64_GOTPCREL	caml_young_ptr-0x4
    1b3a:	4d 8b 3b             	mov    (%r11),%r15
    1b3d:	48 8b 1d 00 00 00 00 	mov    0x0(%rip),%rbx        # 1b44 <camlPervasives__entry+0x354>
			1b40: R_X86_64_GOTPCREL	camlPervasives-0x4
    1b44:	48 89 83 b0 00 00 00 	mov    %rax,0xb0(%rbx)
    1b4b:	48 c7 c7 03 00 00 00 	mov    $0x3,%rdi
    1b52:	48 8b 05 00 00 00 00 	mov    0x0(%rip),%rax        # 1b59 <camlPervasives__entry+0x369>
			1b55: R_X86_64_GOTPCREL	caml_ml_open_descriptor_out-0x4
    1b59:	e8 00 00 00 00       	callq  1b5e <camlPervasives__entry+0x36e>
			1b5a: R_X86_64_PLT32	caml_c_call-0x4
    1b5e:	4c 8b 1d 00 00 00 00 	mov    0x0(%rip),%r11        # 1b65 <camlPervasives__entry+0x375>
			1b61: R_X86_64_GOTPCREL	caml_young_ptr-0x4
    1b65:	4d 8b 3b             	mov    (%r11),%r15
    1b68:	48 8b 1d 00 00 00 00 	mov    0x0(%rip),%rbx        # 1b6f <camlPervasives__entry+0x37f>
			1b6b: R_X86_64_GOTPCREL	camlPervasives-0x4
    1b6f:	48 89 83 b8 00 00 00 	mov    %rax,0xb8(%rbx)
    1b76:	48 c7 c7 05 00 00 00 	mov    $0x5,%rdi
    1b7d:	48 8b 05 00 00 00 00 	mov    0x0(%rip),%rax        # 1b84 <camlPervasives__entry+0x394>
			1b80: R_X86_64_GOTPCREL	caml_ml_open_descriptor_out-0x4
    1b84:	e8 00 00 00 00       	callq  1b89 <camlPervasives__entry+0x399>
			1b85: R_X86_64_PLT32	caml_c_call-0x4
    1b89:	4c 8b 1d 00 00 00 00 	mov    0x0(%rip),%r11        # 1b90 <camlPervasives__entry+0x3a0>
			1b8c: R_X86_64_GOTPCREL	caml_young_ptr-0x4
    1b90:	4d 8b 3b             	mov    (%r11),%r15
    1b93:	48 8b 1d 00 00 00 00 	mov    0x0(%rip),%rbx        # 1b9a <camlPervasives__entry+0x3aa>
			1b96: R_X86_64_GOTPCREL	camlPervasives-0x4
    1b9a:	48 89 83 c0 00 00 00 	mov    %rax,0xc0(%rbx)
    1ba1:	48 8b 05 00 00 00 00 	mov    0x0(%rip),%rax        # 1ba8 <camlPervasives__entry+0x3b8>
			1ba4: R_X86_64_GOTPCREL	camlPervasives__82-0x4
    1ba8:	48 89 83 60 01 00 00 	mov    %rax,0x160(%rbx)
    1baf:	48 8b 05 00 00 00 00 	mov    0x0(%rip),%rax        # 1bb6 <camlPervasives__entry+0x3c6>
			1bb2: R_X86_64_GOTPCREL	camlPervasives__81-0x4
    1bb6:	48 89 83 50 01 00 00 	mov    %rax,0x150(%rbx)
    1bbd:	48 8b 05 00 00 00 00 	mov    0x0(%rip),%rax        # 1bc4 <camlPervasives__entry+0x3d4>
			1bc0: R_X86_64_GOTPCREL	camlPervasives__80-0x4
    1bc4:	48 89 83 58 01 00 00 	mov    %rax,0x158(%rbx)
    1bcb:	48 8b 05 00 00 00 00 	mov    0x0(%rip),%rax        # 1bd2 <camlPervasives__entry+0x3e2>
			1bce: R_X86_64_GOTPCREL	camlPervasives__79-0x4
    1bd2:	48 89 83 70 01 00 00 	mov    %rax,0x170(%rbx)
    1bd9:	48 8b 05 00 00 00 00 	mov    0x0(%rip),%rax        # 1be0 <camlPervasives__entry+0x3f0>
			1bdc: R_X86_64_GOTPCREL	camlPervasives__78-0x4
    1be0:	48 89 83 88 01 00 00 	mov    %rax,0x188(%rbx)
    1be7:	48 8b 05 00 00 00 00 	mov    0x0(%rip),%rax        # 1bee <camlPervasives__entry+0x3fe>
			1bea: R_X86_64_GOTPCREL	camlPervasives__77-0x4
    1bee:	48 89 83 80 01 00 00 	mov    %rax,0x180(%rbx)
    1bf5:	48 8b 05 00 00 00 00 	mov    0x0(%rip),%rax        # 1bfc <camlPervasives__entry+0x40c>
			1bf8: R_X86_64_GOTPCREL	camlPervasives__76-0x4
    1bfc:	48 89 83 90 01 00 00 	mov    %rax,0x190(%rbx)
    1c03:	48 8b 05 00 00 00 00 	mov    0x0(%rip),%rax        # 1c0a <camlPervasives__entry+0x41a>
			1c06: R_X86_64_GOTPCREL	camlPervasives__75-0x4
    1c0a:	48 89 83 98 01 00 00 	mov    %rax,0x198(%rbx)
    1c11:	48 8b 05 00 00 00 00 	mov    0x0(%rip),%rax        # 1c18 <camlPervasives__entry+0x428>
			1c14: R_X86_64_GOTPCREL	camlPervasives__74-0x4
    1c18:	48 89 83 b0 01 00 00 	mov    %rax,0x1b0(%rbx)
    1c1f:	48 8b 05 00 00 00 00 	mov    0x0(%rip),%rax        # 1c26 <camlPervasives__entry+0x436>
			1c22: R_X86_64_GOTPCREL	camlPervasives__73-0x4
    1c26:	48 89 83 d0 01 00 00 	mov    %rax,0x1d0(%rbx)
    1c2d:	48 8b 05 00 00 00 00 	mov    0x0(%rip),%rax        # 1c34 <camlPervasives__entry+0x444>
			1c30: R_X86_64_GOTPCREL	camlPervasives__72-0x4
    1c34:	48 89 83 d8 01 00 00 	mov    %rax,0x1d8(%rbx)
    1c3b:	48 8b 05 00 00 00 00 	mov    0x0(%rip),%rax        # 1c42 <camlPervasives__entry+0x452>
			1c3e: R_X86_64_GOTPCREL	camlPervasives__71-0x4
    1c42:	48 89 83 f8 01 00 00 	mov    %rax,0x1f8(%rbx)
    1c49:	48 8b 05 00 00 00 00 	mov    0x0(%rip),%rax        # 1c50 <camlPervasives__entry+0x460>
			1c4c: R_X86_64_GOTPCREL	camlPervasives__70-0x4
    1c50:	48 89 83 e8 01 00 00 	mov    %rax,0x1e8(%rbx)
    1c57:	48 8b 05 00 00 00 00 	mov    0x0(%rip),%rax        # 1c5e <camlPervasives__entry+0x46e>
			1c5a: R_X86_64_GOTPCREL	camlPervasives__69-0x4
    1c5e:	48 89 83 f0 01 00 00 	mov    %rax,0x1f0(%rbx)
    1c65:	48 8b 05 00 00 00 00 	mov    0x0(%rip),%rax        # 1c6c <camlPervasives__entry+0x47c>
			1c68: R_X86_64_GOTPCREL	camlPervasives__68-0x4
    1c6c:	48 89 83 10 02 00 00 	mov    %rax,0x210(%rbx)
    1c73:	48 8b 05 00 00 00 00 	mov    0x0(%rip),%rax        # 1c7a <camlPervasives__entry+0x48a>
			1c76: R_X86_64_GOTPCREL	camlPervasives__67-0x4
    1c7a:	48 89 83 a0 02 00 00 	mov    %rax,0x2a0(%rbx)
    1c81:	48 8b 05 00 00 00 00 	mov    0x0(%rip),%rax        # 1c88 <camlPervasives__entry+0x498>
			1c84: R_X86_64_GOTPCREL	camlPervasives__66-0x4
    1c88:	48 89 83 18 02 00 00 	mov    %rax,0x218(%rbx)
    1c8f:	48 8b 05 00 00 00 00 	mov    0x0(%rip),%rax        # 1c96 <camlPervasives__entry+0x4a6>
			1c92: R_X86_64_GOTPCREL	camlPervasives__65-0x4
    1c96:	48 89 83 20 02 00 00 	mov    %rax,0x220(%rbx)
    1c9d:	48 8b 05 00 00 00 00 	mov    0x0(%rip),%rax        # 1ca4 <camlPervasives__entry+0x4b4>
			1ca0: R_X86_64_GOTPCREL	camlPervasives__64-0x4
    1ca4:	48 89 83 08 02 00 00 	mov    %rax,0x208(%rbx)
    1cab:	48 8b 05 00 00 00 00 	mov    0x0(%rip),%rax        # 1cb2 <camlPervasives__entry+0x4c2>
			1cae: R_X86_64_GOTPCREL	camlPervasives__63-0x4
    1cb2:	48 89 83 60 02 00 00 	mov    %rax,0x260(%rbx)
    1cb9:	48 8b 05 00 00 00 00 	mov    0x0(%rip),%rax        # 1cc0 <camlPervasives__entry+0x4d0>
			1cbc: R_X86_64_GOTPCREL	camlPervasives__62-0x4
    1cc0:	48 89 83 c8 00 00 00 	mov    %rax,0xc8(%rbx)
    1cc7:	48 8b 05 00 00 00 00 	mov    0x0(%rip),%rax        # 1cce <camlPervasives__entry+0x4de>
			1cca: R_X86_64_GOTPCREL	camlPervasives__61-0x4
    1cce:	48 89 83 d0 00 00 00 	mov    %rax,0xd0(%rbx)
    1cd5:	48 8b 05 00 00 00 00 	mov    0x0(%rip),%rax        # 1cdc <camlPervasives__entry+0x4ec>
			1cd8: R_X86_64_GOTPCREL	camlPervasives__60-0x4
    1cdc:	48 89 83 d8 00 00 00 	mov    %rax,0xd8(%rbx)
    1ce3:	48 8b 05 00 00 00 00 	mov    0x0(%rip),%rax        # 1cea <camlPervasives__entry+0x4fa>
			1ce6: R_X86_64_GOTPCREL	camlPervasives__59-0x4
    1cea:	48 89 83 e0 00 00 00 	mov    %rax,0xe0(%rbx)
    1cf1:	48 8b 05 00 00 00 00 	mov    0x0(%rip),%rax        # 1cf8 <camlPervasives__entry+0x508>
			1cf4: R_X86_64_GOTPCREL	camlPervasives__58-0x4
    1cf8:	48 89 83 e8 00 00 00 	mov    %rax,0xe8(%rbx)
    1cff:	48 8b 05 00 00 00 00 	mov    0x0(%rip),%rax        # 1d06 <camlPervasives__entry+0x516>
			1d02: R_X86_64_GOTPCREL	camlPervasives__57-0x4
    1d06:	48 89 83 f0 00 00 00 	mov    %rax,0xf0(%rbx)
    1d0d:	48 8b 05 00 00 00 00 	mov    0x0(%rip),%rax        # 1d14 <camlPervasives__entry+0x524>
			1d10: R_X86_64_GOTPCREL	camlPervasives__56-0x4
    1d14:	48 89 83 f8 00 00 00 	mov    %rax,0xf8(%rbx)
    1d1b:	48 8b 05 00 00 00 00 	mov    0x0(%rip),%rax        # 1d22 <camlPervasives__entry+0x532>
			1d1e: R_X86_64_GOTPCREL	camlPervasives__55-0x4
    1d22:	48 89 83 00 01 00 00 	mov    %rax,0x100(%rbx)
    1d29:	48 8b 05 00 00 00 00 	mov    0x0(%rip),%rax        # 1d30 <camlPervasives__entry+0x540>
			1d2c: R_X86_64_GOTPCREL	camlPervasives__54-0x4
    1d30:	48 89 83 08 01 00 00 	mov    %rax,0x108(%rbx)
    1d37:	48 8b 05 00 00 00 00 	mov    0x0(%rip),%rax        # 1d3e <camlPervasives__entry+0x54e>
			1d3a: R_X86_64_GOTPCREL	camlPervasives__53-0x4
    1d3e:	48 89 83 10 01 00 00 	mov    %rax,0x110(%rbx)
    1d45:	48 8b 05 00 00 00 00 	mov    0x0(%rip),%rax        # 1d4c <camlPervasives__entry+0x55c>
			1d48: R_X86_64_GOTPCREL	camlPervasives__52-0x4
    1d4c:	48 89 83 18 01 00 00 	mov    %rax,0x118(%rbx)
    1d53:	48 8b 05 00 00 00 00 	mov    0x0(%rip),%rax        # 1d5a <camlPervasives__entry+0x56a>
			1d56: R_X86_64_GOTPCREL	camlPervasives__51-0x4
    1d5a:	48 89 83 20 01 00 00 	mov    %rax,0x120(%rbx)
    1d61:	48 8b 05 00 00 00 00 	mov    0x0(%rip),%rax        # 1d68 <camlPervasives__entry+0x578>
			1d64: R_X86_64_GOTPCREL	camlPervasives__50-0x4
    1d68:	48 89 83 28 01 00 00 	mov    %rax,0x128(%rbx)
    1d6f:	48 8b 05 00 00 00 00 	mov    0x0(%rip),%rax        # 1d76 <camlPervasives__entry+0x586>
			1d72: R_X86_64_GOTPCREL	camlPervasives__49-0x4
    1d76:	48 89 83 30 01 00 00 	mov    %rax,0x130(%rbx)
    1d7d:	48 8b 05 00 00 00 00 	mov    0x0(%rip),%rax        # 1d84 <camlPervasives__entry+0x594>
			1d80: R_X86_64_GOTPCREL	camlPervasives__48-0x4
    1d84:	48 89 83 38 01 00 00 	mov    %rax,0x138(%rbx)
    1d8b:	48 8b 05 00 00 00 00 	mov    0x0(%rip),%rax        # 1d92 <camlPervasives__entry+0x5a2>
			1d8e: R_X86_64_GOTPCREL	camlPervasives__47-0x4
    1d92:	48 89 83 40 01 00 00 	mov    %rax,0x140(%rbx)
    1d99:	48 8b 05 00 00 00 00 	mov    0x0(%rip),%rax        # 1da0 <camlPervasives__entry+0x5b0>
			1d9c: R_X86_64_GOTPCREL	camlPervasives__46-0x4
    1da0:	48 89 83 48 01 00 00 	mov    %rax,0x148(%rbx)
    1da7:	48 c7 c0 48 00 00 00 	mov    $0x48,%rax
    1dae:	e8 00 00 00 00       	callq  1db3 <camlPervasives__entry+0x5c3>
			1daf: R_X86_64_PLT32	caml_allocN-0x4
    1db3:	49 8d 47 08          	lea    0x8(%r15),%rax
    1db7:	48 c7 40 f8 00 18 00 	movq   $0x1800,-0x8(%rax)
    1dbe:	00 
    1dbf:	48 8b 1d 00 00 00 00 	mov    0x0(%rip),%rbx        # 1dc6 <camlPervasives__entry+0x5d6>
			1dc2: R_X86_64_GOTPCREL	camlPervasives__40-0x4
    1dc6:	48 89 18             	mov    %rbx,(%rax)
    1dc9:	48 8b 1d 00 00 00 00 	mov    0x0(%rip),%rbx        # 1dd0 <camlPervasives__entry+0x5e0>
			1dcc: R_X86_64_GOTPCREL	camlPervasives__41-0x4
    1dd0:	48 89 58 08          	mov    %rbx,0x8(%rax)
    1dd4:	48 8b 1d 00 00 00 00 	mov    0x0(%rip),%rbx        # 1ddb <camlPervasives__entry+0x5eb>
			1dd7: R_X86_64_GOTPCREL	camlPervasives__42-0x4
    1ddb:	48 89 58 10          	mov    %rbx,0x10(%rax)
    1ddf:	48 8b 1d 00 00 00 00 	mov    0x0(%rip),%rbx        # 1de6 <camlPervasives__entry+0x5f6>
			1de2: R_X86_64_GOTPCREL	camlPervasives__43-0x4
    1de6:	48 89 58 18          	mov    %rbx,0x18(%rax)
    1dea:	48 8b 1d 00 00 00 00 	mov    0x0(%rip),%rbx        # 1df1 <camlPervasives__entry+0x601>
			1ded: R_X86_64_GOTPCREL	camlPervasives__44-0x4
    1df1:	48 89 58 20          	mov    %rbx,0x20(%rax)
    1df5:	48 8b 1d 00 00 00 00 	mov    0x0(%rip),%rbx        # 1dfc <camlPervasives__entry+0x60c>
			1df8: R_X86_64_GOTPCREL	camlPervasives__45-0x4
    1dfc:	48 89 58 28          	mov    %rbx,0x28(%rax)
    1e00:	48 8b 1d 00 00 00 00 	mov    0x0(%rip),%rbx        # 1e07 <camlPervasives__entry+0x617>
			1e03: R_X86_64_GOTPCREL	camlPervasives-0x4
    1e07:	48 89 83 70 02 00 00 	mov    %rax,0x270(%rbx)
    1e0e:	48 8b 3d 00 00 00 00 	mov    0x0(%rip),%rdi        # 1e15 <camlPervasives__entry+0x625>
			1e11: R_X86_64_GOTPCREL	camlPervasives__39-0x4
    1e15:	48 89 bb 78 02 00 00 	mov    %rdi,0x278(%rbx)
    1e1c:	48 8b 3d 00 00 00 00 	mov    0x0(%rip),%rdi        # 1e23 <camlPervasives__entry+0x633>
			1e1f: R_X86_64_GOTPCREL	camlPervasives__38-0x4
    1e23:	48 89 bb 80 02 00 00 	mov    %rdi,0x280(%rbx)
    1e2a:	48 83 c0 38          	add    $0x38,%rax
    1e2e:	48 c7 40 f8 00 04 00 	movq   $0x400,-0x8(%rax)
    1e35:	00 
    1e36:	48 8b bb 70 01 00 00 	mov    0x170(%rbx),%rdi
    1e3d:	48 89 38             	mov    %rdi,(%rax)
    1e40:	48 89 83 b0 02 00 00 	mov    %rax,0x2b0(%rbx)
    1e47:	48 8b 05 00 00 00 00 	mov    0x0(%rip),%rax        # 1e4e <camlPervasives__entry+0x65e>
			1e4a: R_X86_64_GOTPCREL	camlPervasives__37-0x4
    1e4e:	48 89 83 90 02 00 00 	mov    %rax,0x290(%rbx)
    1e55:	48 8b 05 00 00 00 00 	mov    0x0(%rip),%rax        # 1e5c <camlPervasives__entry+0x66c>
			1e58: R_X86_64_GOTPCREL	camlPervasives__36-0x4
    1e5c:	48 89 83 a8 02 00 00 	mov    %rax,0x2a8(%rbx)
    1e63:	48 8b 05 00 00 00 00 	mov    0x0(%rip),%rax        # 1e6a <camlPervasives__entry+0x67a>
			1e66: R_X86_64_GOTPCREL	camlPervasives__35-0x4
    1e6a:	48 89 83 88 02 00 00 	mov    %rax,0x288(%rbx)
    1e71:	48 8b b3 a8 02 00 00 	mov    0x2a8(%rbx),%rsi
    1e78:	48 8b 3d 00 00 00 00 	mov    0x0(%rip),%rdi        # 1e7f <camlPervasives__entry+0x68f>
			1e7b: R_X86_64_GOTPCREL	camlPervasives__34-0x4
    1e7f:	48 8b 05 00 00 00 00 	mov    0x0(%rip),%rax        # 1e86 <camlPervasives__entry+0x696>
			1e82: R_X86_64_GOTPCREL	caml_register_named_value-0x4
    1e86:	e8 00 00 00 00       	callq  1e8b <camlPervasives__entry+0x69b>
			1e87: R_X86_64_PLT32	caml_c_call-0x4
    1e8b:	4c 8b 1d 00 00 00 00 	mov    0x0(%rip),%r11        # 1e92 <camlPervasives__entry+0x6a2>
			1e8e: R_X86_64_GOTPCREL	caml_young_ptr-0x4
    1e92:	4d 8b 3b             	mov    (%r11),%r15
    1e95:	48 c7 c0 01 00 00 00 	mov    $0x1,%rax
    1e9c:	48 83 c4 08          	add    $0x8,%rsp
    1ea0:	c3                   	retq   
