	.section .rodata.cst8,"a",@progbits
	.align	16
caml_negf_mask:
	.quad	0x8000000000000000
	.quad	0
	.align	16
caml_absf_mask:
	.quad	0x7fffffffffffffff
	.quad	-1
	.data
	.globl	camlComprehensive__data_begin
camlComprehensive__data_begin:
	.text
	.globl	camlComprehensive__code_begin
camlComprehensive__code_begin:
	.data
	.quad	16128
	.globl	camlComprehensive
camlComprehensive:
	.quad	1
	.quad	1
	.quad	1
	.quad	1
	.quad	1
	.quad	1
	.quad	1
	.quad	1
	.quad	1
	.quad	1
	.quad	1
	.quad	1
	.quad	1
	.quad	1
	.quad	1
	.data
	.quad	4087
camlComprehensive__214:
	.quad	caml_curry4
	.quad	9
	.quad	camlComprehensive___mm256_set_pd_1401
	.data
	.quad	3063
camlComprehensive__215:
	.quad	camlComprehensive____cpuid_1388
	.quad	3
	.data
	.globl	camlComprehensive__1
	.quad	2045
camlComprehensive__1:
	.quad	0x4014000000000000
	.data
	.globl	camlComprehensive__2
	.quad	3071
camlComprehensive__2:
	.quad	caml_int32_ops
	.long	5
	.long	0
	.data
	.globl	camlComprehensive__3
	.quad	3071
camlComprehensive__3:
	.quad	caml_int64_ops
	.quad	5
	.data
	.globl	camlComprehensive__4
	.quad	3071
camlComprehensive__4:
	.quad	caml_nativeint_ops
	.quad	5
	.data
	.globl	camlComprehensive__5
	.quad	2816
camlComprehensive__5:
	.quad	11
	.quad	11
	.data
	.quad	2045
camlComprehensive__6:
	.quad	0x4018000000000000
	.data
	.quad	3071
camlComprehensive__7:
	.quad	caml_int32_ops
	.long	6
	.long	0
	.data
	.quad	3071
camlComprehensive__8:
	.quad	caml_int64_ops
	.quad	6
	.data
	.quad	3071
camlComprehensive__9:
	.quad	caml_nativeint_ops
	.quad	6
	.data
	.quad	2816
camlComprehensive__10:
	.quad	13
	.quad	13
	.data
	.quad	4092
camlComprehensive__11:
	.ascii	"comprehensive.ml"
	.space	7
	.byte	7
	.data
	.quad	3840
camlComprehensive__12:
	.quad	camlComprehensive__11
	.quad	61
	.quad	53
	.data
	.quad	4092
camlComprehensive__13:
	.ascii	"comprehensive.ml"
	.space	7
	.byte	7
	.data
	.quad	3840
camlComprehensive__14:
	.quad	camlComprehensive__13
	.quad	63
	.quad	53
	.data
	.quad	4092
camlComprehensive__15:
	.ascii	"comprehensive.ml"
	.space	7
	.byte	7
	.data
	.quad	3840
camlComprehensive__16:
	.quad	camlComprehensive__15
	.quad	65
	.quad	53
	.data
	.quad	4092
camlComprehensive__17:
	.ascii	"comprehensive.ml"
	.space	7
	.byte	7
	.data
	.quad	3840
camlComprehensive__18:
	.quad	camlComprehensive__17
	.quad	67
	.quad	53
	.data
	.quad	4092
camlComprehensive__19:
	.ascii	"comprehensive.ml"
	.space	7
	.byte	7
	.data
	.quad	3840
camlComprehensive__20:
	.quad	camlComprehensive__19
	.quad	69
	.quad	53
	.data
	.quad	4092
camlComprehensive__21:
	.ascii	"comprehensive.ml"
	.space	7
	.byte	7
	.data
	.quad	3840
camlComprehensive__22:
	.quad	camlComprehensive__21
	.quad	71
	.quad	53
	.data
	.quad	4092
camlComprehensive__23:
	.ascii	"comprehensive.ml"
	.space	7
	.byte	7
	.data
	.quad	3840
camlComprehensive__24:
	.quad	camlComprehensive__23
	.quad	73
	.quad	53
	.data
	.quad	4092
camlComprehensive__25:
	.ascii	"comprehensive.ml"
	.space	7
	.byte	7
	.data
	.quad	3840
camlComprehensive__26:
	.quad	camlComprehensive__25
	.quad	75
	.quad	53
	.data
	.quad	4092
camlComprehensive__27:
	.ascii	"comprehensive.ml"
	.space	7
	.byte	7
	.data
	.quad	3840
camlComprehensive__28:
	.quad	camlComprehensive__27
	.quad	77
	.quad	53
	.data
	.quad	4092
camlComprehensive__29:
	.ascii	"comprehensive.ml"
	.space	7
	.byte	7
	.data
	.quad	3840
camlComprehensive__30:
	.quad	camlComprehensive__29
	.quad	79
	.quad	53
	.data
	.quad	4092
camlComprehensive__31:
	.ascii	"comprehensive.ml"
	.space	7
	.byte	7
	.data
	.quad	3840
camlComprehensive__32:
	.quad	camlComprehensive__31
	.quad	81
	.quad	53
	.data
	.quad	4092
camlComprehensive__33:
	.ascii	"comprehensive.ml"
	.space	7
	.byte	7
	.data
	.quad	3840
camlComprehensive__34:
	.quad	camlComprehensive__33
	.quad	83
	.quad	53
	.data
	.quad	4092
camlComprehensive__35:
	.ascii	"comprehensive.ml"
	.space	7
	.byte	7
	.data
	.quad	3840
camlComprehensive__36:
	.quad	camlComprehensive__35
	.quad	119
	.quad	43
	.data
	.quad	4092
camlComprehensive__37:
	.ascii	"comprehensive.ml"
	.space	7
	.byte	7
	.data
	.quad	3840
camlComprehensive__38:
	.quad	camlComprehensive__37
	.quad	121
	.quad	43
	.data
	.quad	4092
camlComprehensive__39:
	.ascii	"comprehensive.ml"
	.space	7
	.byte	7
	.data
	.quad	3840
camlComprehensive__40:
	.quad	camlComprehensive__39
	.quad	123
	.quad	43
	.data
	.quad	4092
camlComprehensive__41:
	.ascii	"comprehensive.ml"
	.space	7
	.byte	7
	.data
	.quad	3840
camlComprehensive__42:
	.quad	camlComprehensive__41
	.quad	125
	.quad	43
	.data
	.quad	4092
camlComprehensive__43:
	.ascii	"comprehensive.ml"
	.space	7
	.byte	7
	.data
	.quad	3840
camlComprehensive__44:
	.quad	camlComprehensive__43
	.quad	127
	.quad	43
	.data
	.quad	4092
camlComprehensive__45:
	.ascii	"comprehensive.ml"
	.space	7
	.byte	7
	.data
	.quad	3840
camlComprehensive__46:
	.quad	camlComprehensive__45
	.quad	129
	.quad	43
	.data
	.quad	4092
camlComprehensive__47:
	.ascii	"comprehensive.ml"
	.space	7
	.byte	7
	.data
	.quad	3840
camlComprehensive__48:
	.quad	camlComprehensive__47
	.quad	143
	.quad	43
	.data
	.quad	4092
camlComprehensive__49:
	.ascii	"comprehensive.ml"
	.space	7
	.byte	7
	.data
	.quad	3840
camlComprehensive__50:
	.quad	camlComprehensive__49
	.quad	145
	.quad	43
	.data
	.quad	4092
camlComprehensive__51:
	.ascii	"comprehensive.ml"
	.space	7
	.byte	7
	.data
	.quad	3840
camlComprehensive__52:
	.quad	camlComprehensive__51
	.quad	147
	.quad	43
	.data
	.quad	4092
camlComprehensive__53:
	.ascii	"comprehensive.ml"
	.space	7
	.byte	7
	.data
	.quad	3840
camlComprehensive__54:
	.quad	camlComprehensive__53
	.quad	149
	.quad	43
	.data
	.quad	4092
camlComprehensive__55:
	.ascii	"comprehensive.ml"
	.space	7
	.byte	7
	.data
	.quad	3840
camlComprehensive__56:
	.quad	camlComprehensive__55
	.quad	151
	.quad	43
	.data
	.quad	4092
camlComprehensive__57:
	.ascii	"comprehensive.ml"
	.space	7
	.byte	7
	.data
	.quad	3840
camlComprehensive__58:
	.quad	camlComprehensive__57
	.quad	153
	.quad	43
	.data
	.quad	4092
camlComprehensive__59:
	.ascii	"comprehensive.ml"
	.space	7
	.byte	7
	.data
	.quad	3840
camlComprehensive__60:
	.quad	camlComprehensive__59
	.quad	201
	.quad	51
	.data
	.quad	4092
camlComprehensive__61:
	.ascii	"comprehensive.ml"
	.space	7
	.byte	7
	.data
	.quad	3840
camlComprehensive__62:
	.quad	camlComprehensive__61
	.quad	203
	.quad	51
	.data
	.quad	4092
camlComprehensive__63:
	.ascii	"comprehensive.ml"
	.space	7
	.byte	7
	.data
	.quad	3840
camlComprehensive__64:
	.quad	camlComprehensive__63
	.quad	205
	.quad	51
	.data
	.quad	4092
camlComprehensive__65:
	.ascii	"comprehensive.ml"
	.space	7
	.byte	7
	.data
	.quad	3840
camlComprehensive__66:
	.quad	camlComprehensive__65
	.quad	207
	.quad	51
	.data
	.quad	4092
camlComprehensive__67:
	.ascii	"comprehensive.ml"
	.space	7
	.byte	7
	.data
	.quad	3840
camlComprehensive__68:
	.quad	camlComprehensive__67
	.quad	209
	.quad	51
	.data
	.quad	4092
camlComprehensive__69:
	.ascii	"comprehensive.ml"
	.space	7
	.byte	7
	.data
	.quad	3840
camlComprehensive__70:
	.quad	camlComprehensive__69
	.quad	211
	.quad	51
	.data
	.quad	4092
camlComprehensive__71:
	.ascii	"comprehensive.ml"
	.space	7
	.byte	7
	.data
	.quad	3840
camlComprehensive__72:
	.quad	camlComprehensive__71
	.quad	213
	.quad	51
	.data
	.quad	4092
camlComprehensive__73:
	.ascii	"comprehensive.ml"
	.space	7
	.byte	7
	.data
	.quad	3840
camlComprehensive__74:
	.quad	camlComprehensive__73
	.quad	215
	.quad	51
	.data
	.quad	4092
camlComprehensive__75:
	.ascii	"comprehensive.ml"
	.space	7
	.byte	7
	.data
	.quad	3840
camlComprehensive__76:
	.quad	camlComprehensive__75
	.quad	217
	.quad	51
	.data
	.quad	4092
camlComprehensive__77:
	.ascii	"comprehensive.ml"
	.space	7
	.byte	7
	.data
	.quad	3840
camlComprehensive__78:
	.quad	camlComprehensive__77
	.quad	219
	.quad	51
	.data
	.quad	4092
camlComprehensive__79:
	.ascii	"comprehensive.ml"
	.space	7
	.byte	7
	.data
	.quad	3840
camlComprehensive__80:
	.quad	camlComprehensive__79
	.quad	221
	.quad	51
	.data
	.quad	4092
camlComprehensive__81:
	.ascii	"comprehensive.ml"
	.space	7
	.byte	7
	.data
	.quad	3840
camlComprehensive__82:
	.quad	camlComprehensive__81
	.quad	223
	.quad	51
	.data
	.quad	4092
camlComprehensive__83:
	.ascii	"comprehensive.ml"
	.space	7
	.byte	7
	.data
	.quad	3840
camlComprehensive__84:
	.quad	camlComprehensive__83
	.quad	247
	.quad	91
	.data
	.quad	3071
camlComprehensive__85:
	.quad	caml_int32_ops
	.long	1
	.long	0
	.data
	.quad	3071
camlComprehensive__86:
	.quad	caml_int64_ops
	.quad	1
	.data
	.quad	3071
camlComprehensive__87:
	.quad	caml_nativeint_ops
	.quad	1
	.data
	.quad	4092
camlComprehensive__88:
	.ascii	"comprehensive.ml"
	.space	7
	.byte	7
	.data
	.quad	3840
camlComprehensive__89:
	.quad	camlComprehensive__88
	.quad	273
	.quad	49
	.data
	.quad	4092
camlComprehensive__90:
	.ascii	"comprehensive.ml"
	.space	7
	.byte	7
	.data
	.quad	3840
camlComprehensive__91:
	.quad	camlComprehensive__90
	.quad	275
	.quad	49
	.data
	.quad	4092
camlComprehensive__92:
	.ascii	"comprehensive.ml"
	.space	7
	.byte	7
	.data
	.quad	3840
camlComprehensive__93:
	.quad	camlComprehensive__92
	.quad	291
	.quad	57
	.data
	.quad	4092
camlComprehensive__94:
	.ascii	"comprehensive.ml"
	.space	7
	.byte	7
	.data
	.quad	3840
camlComprehensive__95:
	.quad	camlComprehensive__94
	.quad	305
	.quad	53
	.data
	.quad	4092
camlComprehensive__96:
	.ascii	"comprehensive.ml"
	.space	7
	.byte	7
	.data
	.quad	3840
camlComprehensive__97:
	.quad	camlComprehensive__96
	.quad	315
	.quad	49
	.data
	.quad	4092
camlComprehensive__98:
	.ascii	"comprehensive.ml"
	.space	7
	.byte	7
	.data
	.quad	3840
camlComprehensive__99:
	.quad	camlComprehensive__98
	.quad	329
	.quad	57
	.data
	.quad	4092
camlComprehensive__100:
	.ascii	"comprehensive.ml"
	.space	7
	.byte	7
	.data
	.quad	3840
camlComprehensive__101:
	.quad	camlComprehensive__100
	.quad	343
	.quad	61
	.data
	.quad	4092
camlComprehensive__102:
	.ascii	"comprehensive.ml"
	.space	7
	.byte	7
	.data
	.quad	3840
camlComprehensive__103:
	.quad	camlComprehensive__102
	.quad	373
	.quad	5
	.data
	.quad	4092
camlComprehensive__104:
	.ascii	"comprehensive.ml"
	.space	7
	.byte	7
	.data
	.quad	3840
camlComprehensive__105:
	.quad	camlComprehensive__104
	.quad	375
	.quad	5
	.data
	.quad	2045
camlComprehensive__106:
	.quad	0x3ff0000000000000
	.data
	.quad	2045
camlComprehensive__107:
	.quad	0x402a000000000000
	.data
	.quad	4092
camlComprehensive__108:
	.ascii	"comprehensive.ml"
	.space	7
	.byte	7
	.data
	.quad	3840
camlComprehensive__109:
	.quad	camlComprehensive__108
	.quad	391
	.quad	97
	.data
	.quad	4092
camlComprehensive__110:
	.ascii	"comprehensive.ml"
	.space	7
	.byte	7
	.data
	.quad	3840
camlComprehensive__111:
	.quad	camlComprehensive__110
	.quad	393
	.quad	97
	.data
	.quad	4092
camlComprehensive__112:
	.ascii	"comprehensive.ml"
	.space	7
	.byte	7
	.data
	.quad	3840
camlComprehensive__113:
	.quad	camlComprehensive__112
	.quad	423
	.quad	5
	.data
	.quad	4092
camlComprehensive__114:
	.ascii	"comprehensive.ml"
	.space	7
	.byte	7
	.data
	.quad	3840
camlComprehensive__115:
	.quad	camlComprehensive__114
	.quad	425
	.quad	5
	.data
	.quad	4092
camlComprehensive__116:
	.ascii	"comprehensive.ml"
	.space	7
	.byte	7
	.data
	.quad	3840
camlComprehensive__117:
	.quad	camlComprehensive__116
	.quad	439
	.quad	91
	.data
	.quad	4092
camlComprehensive__118:
	.ascii	"comprehensive.ml"
	.space	7
	.byte	7
	.data
	.quad	3840
camlComprehensive__119:
	.quad	camlComprehensive__118
	.quad	441
	.quad	65
	.data
	.quad	4092
camlComprehensive__120:
	.ascii	"comprehensive.ml"
	.space	7
	.byte	7
	.data
	.quad	3840
camlComprehensive__121:
	.quad	camlComprehensive__120
	.quad	455
	.quad	91
	.data
	.quad	4092
camlComprehensive__122:
	.ascii	"comprehensive.ml"
	.space	7
	.byte	7
	.data
	.quad	3840
camlComprehensive__123:
	.quad	camlComprehensive__122
	.quad	457
	.quad	65
	.data
	.quad	4092
camlComprehensive__124:
	.ascii	"comprehensive.ml"
	.space	7
	.byte	7
	.data
	.quad	3840
camlComprehensive__125:
	.quad	camlComprehensive__124
	.quad	459
	.quad	61
	.data
	.quad	4092
camlComprehensive__126:
	.ascii	"comprehensive.ml"
	.space	7
	.byte	7
	.data
	.quad	3840
camlComprehensive__127:
	.quad	camlComprehensive__126
	.quad	477
	.quad	61
	.data
	.quad	3071
camlComprehensive__128:
	.quad	caml_int64_ops
	.quad	13
	.data
	.quad	4092
camlComprehensive__129:
	.ascii	"comprehensive.ml"
	.space	7
	.byte	7
	.data
	.quad	3840
camlComprehensive__130:
	.quad	camlComprehensive__129
	.quad	479
	.quad	93
	.data
	.quad	4092
camlComprehensive__131:
	.ascii	"comprehensive.ml"
	.space	7
	.byte	7
	.data
	.quad	3840
camlComprehensive__132:
	.quad	camlComprehensive__131
	.quad	493
	.quad	65
	.data
	.quad	4092
camlComprehensive__133:
	.ascii	"comprehensive.ml"
	.space	7
	.byte	7
	.data
	.quad	3840
camlComprehensive__134:
	.quad	camlComprehensive__133
	.quad	507
	.quad	91
	.data
	.quad	4092
camlComprehensive__135:
	.ascii	"comprehensive.ml"
	.space	7
	.byte	7
	.data
	.quad	3840
camlComprehensive__136:
	.quad	camlComprehensive__135
	.quad	509
	.quad	65
	.data
	.quad	4092
camlComprehensive__137:
	.ascii	"comprehensive.ml"
	.space	7
	.byte	7
	.data
	.quad	3840
camlComprehensive__138:
	.quad	camlComprehensive__137
	.quad	511
	.quad	65
	.data
	.quad	4092
camlComprehensive__139:
	.ascii	"comprehensive.ml"
	.space	7
	.byte	7
	.data
	.quad	3840
camlComprehensive__140:
	.quad	camlComprehensive__139
	.quad	539
	.quad	91
	.data
	.quad	4092
camlComprehensive__141:
	.ascii	"comprehensive.ml"
	.space	7
	.byte	7
	.data
	.quad	3840
camlComprehensive__142:
	.quad	camlComprehensive__141
	.quad	541
	.quad	91
	.data
	.quad	4092
camlComprehensive__143:
	.ascii	"comprehensive.ml"
	.space	7
	.byte	7
	.data
	.quad	3840
camlComprehensive__144:
	.quad	camlComprehensive__143
	.quad	561
	.quad	91
	.data
	.quad	4092
camlComprehensive__145:
	.ascii	"comprehensive.ml"
	.space	7
	.byte	7
	.data
	.quad	3840
camlComprehensive__146:
	.quad	camlComprehensive__145
	.quad	563
	.quad	91
	.data
	.quad	4092
camlComprehensive__147:
	.ascii	"comprehensive.ml"
	.space	7
	.byte	7
	.data
	.quad	3840
camlComprehensive__148:
	.quad	camlComprehensive__147
	.quad	583
	.quad	91
	.data
	.quad	4092
camlComprehensive__149:
	.ascii	"comprehensive.ml"
	.space	7
	.byte	7
	.data
	.quad	3840
camlComprehensive__150:
	.quad	camlComprehensive__149
	.quad	585
	.quad	91
	.data
	.quad	4092
camlComprehensive__151:
	.ascii	"comprehensive.ml"
	.space	7
	.byte	7
	.data
	.quad	3840
camlComprehensive__152:
	.quad	camlComprehensive__151
	.quad	607
	.quad	91
	.data
	.quad	4092
camlComprehensive__153:
	.ascii	"comprehensive.ml"
	.space	7
	.byte	7
	.data
	.quad	3840
camlComprehensive__154:
	.quad	camlComprehensive__153
	.quad	635
	.quad	91
	.data
	.quad	4092
camlComprehensive__155:
	.ascii	"comprehensive.ml"
	.space	7
	.byte	7
	.data
	.quad	3840
camlComprehensive__156:
	.quad	camlComprehensive__155
	.quad	671
	.quad	5
	.data
	.quad	4092
camlComprehensive__157:
	.ascii	"comprehensive.ml"
	.space	7
	.byte	7
	.data
	.quad	3840
camlComprehensive__158:
	.quad	camlComprehensive__157
	.quad	697
	.quad	51
	.data
	.quad	4092
camlComprehensive__159:
	.ascii	"comprehensive.ml"
	.space	7
	.byte	7
	.data
	.quad	3840
camlComprehensive__160:
	.quad	camlComprehensive__159
	.quad	699
	.quad	51
	.data
	.quad	4092
camlComprehensive__161:
	.ascii	"comprehensive.ml"
	.space	7
	.byte	7
	.data
	.quad	3840
camlComprehensive__162:
	.quad	camlComprehensive__161
	.quad	729
	.quad	5
	.data
	.quad	4092
camlComprehensive__163:
	.ascii	"comprehensive.ml"
	.space	7
	.byte	7
	.data
	.quad	3840
camlComprehensive__164:
	.quad	camlComprehensive__163
	.quad	751
	.quad	5
	.data
	.quad	2045
camlComprehensive__165:
	.quad	0x4000000000000000
	.data
	.quad	2045
camlComprehensive__166:
	.quad	0x4008000000000000
	.data
	.quad	2045
camlComprehensive__167:
	.quad	0x4010000000000000
	.data
	.quad	4092
camlComprehensive__168:
	.ascii	"comprehensive.ml"
	.space	7
	.byte	7
	.data
	.quad	3840
camlComprehensive__169:
	.quad	camlComprehensive__168
	.quad	791
	.quad	5
	.data
	.quad	4092
camlComprehensive__170:
	.ascii	"comprehensive.ml"
	.space	7
	.byte	7
	.data
	.quad	3840
camlComprehensive__171:
	.quad	camlComprehensive__170
	.quad	793
	.quad	5
	.data
	.quad	3068
camlComprehensive__172:
	.ascii	"abcdefgh"
	.space	7
	.byte	7
	.data
	.quad	3068
camlComprehensive__173:
	.ascii	"\1bcdefgh"
	.space	7
	.byte	7
	.data
	.quad	4092
camlComprehensive__174:
	.ascii	"comprehensive.ml"
	.space	7
	.byte	7
	.data
	.quad	3840
camlComprehensive__175:
	.quad	camlComprehensive__174
	.quad	813
	.quad	5
	.data
	.quad	3068
camlComprehensive__176:
	.ascii	"abcdefgh"
	.space	7
	.byte	7
	.data
	.quad	3068
camlComprehensive__177:
	.ascii	"\1\0cdefgh"
	.space	7
	.byte	7
	.data
	.quad	4092
camlComprehensive__178:
	.ascii	"comprehensive.ml"
	.space	7
	.byte	7
	.data
	.quad	3840
camlComprehensive__179:
	.quad	camlComprehensive__178
	.quad	829
	.quad	5
	.data
	.quad	3068
camlComprehensive__180:
	.ascii	"abcdefgh"
	.space	7
	.byte	7
	.data
	.quad	3068
camlComprehensive__181:
	.ascii	"\1\0\0\0efgh"
	.space	7
	.byte	7
	.data
	.quad	4092
camlComprehensive__182:
	.ascii	"comprehensive.ml"
	.space	7
	.byte	7
	.data
	.quad	3840
camlComprehensive__183:
	.quad	camlComprehensive__182
	.quad	845
	.quad	5
	.data
	.quad	3068
camlComprehensive__184:
	.ascii	"abcdefgh"
	.space	7
	.byte	7
	.data
	.quad	3071
camlComprehensive__185:
	.quad	caml_int64_ops
	.quad	65
	.data
	.quad	3068
camlComprehensive__186:
	.ascii	"Abcdefgh"
	.space	7
	.byte	7
	.data
	.quad	4092
camlComprehensive__187:
	.ascii	"comprehensive.ml"
	.space	7
	.byte	7
	.data
	.quad	3840
camlComprehensive__188:
	.quad	camlComprehensive__187
	.quad	865
	.quad	5
	.data
	.quad	3068
camlComprehensive__189:
	.ascii	"abcdefgh"
	.space	7
	.byte	7
	.data
	.quad	3071
camlComprehensive__190:
	.quad	caml_int64_ops
	.quad	16961
	.data
	.quad	3068
camlComprehensive__191:
	.ascii	"ABcdefgh"
	.space	7
	.byte	7
	.data
	.quad	4092
camlComprehensive__192:
	.ascii	"comprehensive.ml"
	.space	7
	.byte	7
	.data
	.quad	3840
camlComprehensive__193:
	.quad	camlComprehensive__192
	.quad	881
	.quad	5
	.data
	.quad	3068
camlComprehensive__194:
	.ascii	"abcdefgh"
	.space	7
	.byte	7
	.data
	.quad	3071
camlComprehensive__195:
	.quad	caml_int64_ops
	.quad	1145258561
	.data
	.quad	3068
camlComprehensive__196:
	.ascii	"ABCDefgh"
	.space	7
	.byte	7
	.data
	.quad	4092
camlComprehensive__197:
	.ascii	"comprehensive.ml"
	.space	7
	.byte	7
	.data
	.quad	3840
camlComprehensive__198:
	.quad	camlComprehensive__197
	.quad	897
	.quad	5
	.data
	.quad	3068
camlComprehensive__199:
	.ascii	"abcdefgh"
	.space	7
	.byte	7
	.data
	.quad	3071
camlComprehensive__200:
	.quad	caml_int64_ops
	.quad	0x4847464544434241
	.data
	.quad	3068
camlComprehensive__201:
	.ascii	"ABCDEFGH"
	.space	7
	.byte	7
	.data
	.quad	4092
camlComprehensive__202:
	.ascii	"comprehensive.ml"
	.space	7
	.byte	7
	.data
	.quad	3840
camlComprehensive__203:
	.quad	camlComprehensive__202
	.quad	913
	.quad	5
	.data
	.quad	3068
camlComprehensive__204:
	.ascii	"abcdefgh"
	.space	7
	.byte	7
	.data
	.quad	3068
camlComprehensive__205:
	.ascii	"Bbcdefgh"
	.space	7
	.byte	7
	.data
	.quad	4092
camlComprehensive__206:
	.ascii	"comprehensive.ml"
	.space	7
	.byte	7
	.data
	.quad	3840
camlComprehensive__207:
	.quad	camlComprehensive__206
	.quad	929
	.quad	5
	.data
	.quad	3071
camlComprehensive__208:
	.quad	caml_int64_ops
	.quad	268435456
	.data
	.quad	3071
camlComprehensive__209:
	.quad	caml_int64_ops
	.quad	0
	.data
	.quad	4092
camlComprehensive__210:
	.ascii	"comprehensive.ml"
	.space	7
	.byte	7
	.data
	.quad	3840
camlComprehensive__211:
	.quad	camlComprehensive__210
	.quad	1021
	.quad	9
	.data
	.quad	4092
camlComprehensive__212:
	.ascii	"comprehensive.ml"
	.space	7
	.byte	7
	.data
	.quad	3840
camlComprehensive__213:
	.quad	camlComprehensive__212
	.quad	1039
	.quad	9
	.text
	.align	16
	.globl	camlComprehensive____cpuid_1388
camlComprehensive____cpuid_1388:
	.cfi_startproc
	subq	$8, %rsp
	.cfi_adjust_cfa_offset 8
.L100:
	movq	8(%rax), %rbx
	
.L101:
	subq	$136, %r15
	movq	caml_young_limit@GOTPCREL(%rip), %rax
	cmpq	(%rax), %r15
	jb	.L102
	leaq	8(%r15), %rdi
	movq	$2303, -8(%rdi)
	movq	caml_int64_ops@GOTPCREL(%rip), %rax
	movq	%rax, (%rdi)
	movq	%rbx, 8(%rdi)
	
	leaq	24(%rdi), %r9
	movq	$2303, -8(%r9)
	movq	%rax, (%r9)
	movq	%r12, 8(%r9)
	
	leaq	48(%rdi), %r8
	movq	$2303, -8(%r8)
	movq	%rax, (%r8)
	movq	%rcx, 8(%r8)
	
	leaq	72(%rdi), %rsi
	movq	$2303, -8(%rsi)
	movq	%rax, (%rsi)
	movq	%rdx, 8(%rsi)
	movq	%rbx, %rax
	movq	%r12, %rbx
	mov	8(%rdi), %eax	# __cpuid
	cpuid
	mov	%eax, 8(%rdi)
	mov	%ebx, 8(%r9)
	mov	%ecx, 8(%r8)
	mov	%edx, 8(%rsi)
	leaq	96(%rdi), %rax
	movq	$4096, -8(%rax)
	movq	%rdi, (%rax)
	movq	%r9, 8(%rax)
	movq	%r8, 16(%rax)
	movq	%rsi, 24(%rax)
	addq	$8, %rsp
	.cfi_adjust_cfa_offset -8
	ret
	.cfi_adjust_cfa_offset 8
.L102:
	call	caml_call_gc@PLT
.L103:
	jmp	.L101
	.cfi_endproc
	.type camlComprehensive____cpuid_1388,@function
	.size camlComprehensive____cpuid_1388,. - camlComprehensive____cpuid_1388
	.text
	.align	16
	.globl	camlComprehensive___mm256_set_pd_1401
camlComprehensive___mm256_set_pd_1401:
	.cfi_startproc
	subq	$8, %rsp
	.cfi_adjust_cfa_offset 8
.L104:
	movq	%rax, %rdx
.L105:
	subq	$40, %r15
	movq	caml_young_limit@GOTPCREL(%rip), %rax
	cmpq	(%rax), %r15
	jb	.L106
	leaq	8(%r15), %rax
	movq	$4349, -8(%rax)
	movsd	(%rsi), %xmm0
	movsd	(%rdi), %xmm1
	unpcklpd	%xmm0, %xmm1	# _mm_set_pd
	
	movsd	(%rbx), %xmm0
	movsd	(%rdx), %xmm2
	unpcklpd	%xmm0, %xmm2	# _mm_set_pd
	
	vunpcklpd	%ymm2, %ymm1, %ymm0	# _mm256_unpacklo_pd
	vmovupd	%ymm0, (%rax)
	addq	$8, %rsp
	.cfi_adjust_cfa_offset -8
	ret
	.cfi_adjust_cfa_offset 8
.L106:
	call	caml_call_gc@PLT
.L107:
	jmp	.L105
	.cfi_endproc
	.type camlComprehensive___mm256_set_pd_1401,@function
	.size camlComprehensive___mm256_set_pd_1401,. - camlComprehensive___mm256_set_pd_1401
	.text
	.align	16
	.globl	camlComprehensive__entry
camlComprehensive__entry:
	.cfi_startproc
	subq	$8, %rsp
	.cfi_adjust_cfa_offset 8
.L194:
	movq	camlComprehensive@GOTPCREL(%rip), %rax
	movq	camlComprehensive__1@GOTPCREL(%rip), %rbx
	movq	%rbx, (%rax)
	movq	$11, 8(%rax)
	movq	camlComprehensive__2@GOTPCREL(%rip), %rbx
	movq	%rbx, 16(%rax)
	movq	camlComprehensive__3@GOTPCREL(%rip), %rbx
	movq	%rbx, 24(%rax)
	movq	camlComprehensive__4@GOTPCREL(%rip), %rbx
	movq	%rbx, 32(%rax)
	movq	camlComprehensive__5@GOTPCREL(%rip), %rbx
	movq	%rbx, 40(%rax)
	movq	$96, %rax
	call	caml_allocN@PLT
.L195:
	leaq	8(%r15), %rax
	movq	$1024, -8(%rax)
	movq	camlComprehensive__6@GOTPCREL(%rip), %rbx
	movq	%rbx, (%rax)
	movq	camlComprehensive@GOTPCREL(%rip), %rbx
	movq	%rax, 48(%rbx)
	leaq	16(%rax), %rdi
	movq	$1024, -8(%rdi)
	movq	$13, (%rdi)
	movq	%rdi, 56(%rbx)
	leaq	32(%rax), %rdi
	movq	$1024, -8(%rdi)
	movq	camlComprehensive__7@GOTPCREL(%rip), %rsi
	movq	%rsi, (%rdi)
	movq	%rdi, 64(%rbx)
	leaq	48(%rax), %rdi
	movq	$1024, -8(%rdi)
	movq	camlComprehensive__8@GOTPCREL(%rip), %rsi
	movq	%rsi, (%rdi)
	movq	%rdi, 72(%rbx)
	leaq	64(%rax), %rdi
	movq	$1024, -8(%rdi)
	movq	camlComprehensive__9@GOTPCREL(%rip), %rsi
	movq	%rsi, (%rdi)
	movq	%rdi, 80(%rbx)
	addq	$80, %rax
	movq	$1024, -8(%rax)
	movq	camlComprehensive__10@GOTPCREL(%rip), %rdi
	movq	%rdi, (%rax)
	movq	%rax, 88(%rbx)
	movq	48(%rbx), %rax
	mov	(%rax), %rbx	# func1a
	movq	(%rax), %rax
	movsd	(%rax), %xmm0
	movsd	(%rbx), %xmm1
	ucomisd	%xmm0, %xmm1
	jp	.L196
	je	.L193
.L196:
	call	caml_alloc2@PLT
.L197:
	leaq	8(%r15), %rax
	movq	$2048, -8(%rax)
	movq	caml_exn_Assert_failure@GOTPCREL(%rip), %rbx
	movq	%rbx, (%rax)
	movq	camlComprehensive__12@GOTPCREL(%rip), %rbx
	movq	%rbx, 8(%rax)
	movq	%r14, %rsp
	popq	%r14
	ret
.L193:
	movq	camlComprehensive@GOTPCREL(%rip), %rax
	movq	56(%rax), %rax
	mov	(%rax), %rbx	# func1a
	movq	(%rax), %rax
	cmpq	%rax, %rbx
	je	.L192
	call	caml_alloc2@PLT
.L198:
	leaq	8(%r15), %rax
	movq	$2048, -8(%rax)
	movq	caml_exn_Assert_failure@GOTPCREL(%rip), %rbx
	movq	%rbx, (%rax)
	movq	camlComprehensive__14@GOTPCREL(%rip), %rbx
	movq	%rbx, 8(%rax)
	movq	%r14, %rsp
	popq	%r14
	ret
.L192:
	movq	camlComprehensive@GOTPCREL(%rip), %rax
	movq	64(%rax), %rax
	mov	(%rax), %rbx	# func1a
	movq	(%rax), %rax
	movslq	8(%rax), %rax
	movslq	8(%rbx), %rbx
	cmpq	%rax, %rbx
	je	.L191
	call	caml_alloc2@PLT
.L199:
	leaq	8(%r15), %rax
	movq	$2048, -8(%rax)
	movq	caml_exn_Assert_failure@GOTPCREL(%rip), %rbx
	movq	%rbx, (%rax)
	movq	camlComprehensive__16@GOTPCREL(%rip), %rbx
	movq	%rbx, 8(%rax)
	movq	%r14, %rsp
	popq	%r14
	ret
.L191:
	movq	camlComprehensive@GOTPCREL(%rip), %rax
	movq	72(%rax), %rax
	mov	(%rax), %rbx	# func1a
	movq	(%rax), %rax
	movq	8(%rax), %rax
	movq	8(%rbx), %rbx
	cmpq	%rax, %rbx
	je	.L190
	call	caml_alloc2@PLT
.L200:
	leaq	8(%r15), %rax
	movq	$2048, -8(%rax)
	movq	caml_exn_Assert_failure@GOTPCREL(%rip), %rbx
	movq	%rbx, (%rax)
	movq	camlComprehensive__18@GOTPCREL(%rip), %rbx
	movq	%rbx, 8(%rax)
	movq	%r14, %rsp
	popq	%r14
	ret
.L190:
	movq	camlComprehensive@GOTPCREL(%rip), %rax
	movq	80(%rax), %rax
	mov	(%rax), %rbx	# func1a
	movq	(%rax), %rax
	movq	8(%rax), %rax
	movq	8(%rbx), %rbx
	cmpq	%rax, %rbx
	je	.L189
	call	caml_alloc2@PLT
.L201:
	leaq	8(%r15), %rax
	movq	$2048, -8(%rax)
	movq	caml_exn_Assert_failure@GOTPCREL(%rip), %rbx
	movq	%rbx, (%rax)
	movq	camlComprehensive__20@GOTPCREL(%rip), %rbx
	movq	%rbx, 8(%rax)
	movq	%r14, %rsp
	popq	%r14
	ret
.L189:
	movq	camlComprehensive@GOTPCREL(%rip), %rax
	movq	88(%rax), %rax
	mov	(%rax), %rdi	# func1a
	movq	(%rax), %rsi
	movq	caml_equal@GOTPCREL(%rip), %rax
	call	caml_c_call@PLT
.L202:
	movq	caml_young_ptr@GOTPCREL(%rip), %r11
	movq	(%r11), %r15
	cmpq	$1, %rax
	jne	.L188
	call	caml_alloc2@PLT
.L203:
	leaq	8(%r15), %rax
	movq	$2048, -8(%rax)
	movq	caml_exn_Assert_failure@GOTPCREL(%rip), %rbx
	movq	%rbx, (%rax)
	movq	camlComprehensive__22@GOTPCREL(%rip), %rbx
	movq	%rbx, 8(%rax)
	movq	%r14, %rsp
	popq	%r14
	ret
.L188:
	movq	camlComprehensive@GOTPCREL(%rip), %rax
	movq	48(%rax), %rax
	mov	(%rax), %rbx	# func1b
	movq	(%rax), %rax
	movsd	(%rax), %xmm0
	movsd	(%rbx), %xmm1
	ucomisd	%xmm0, %xmm1
	jp	.L204
	je	.L187
.L204:
	call	caml_alloc2@PLT
.L205:
	leaq	8(%r15), %rax
	movq	$2048, -8(%rax)
	movq	caml_exn_Assert_failure@GOTPCREL(%rip), %rbx
	movq	%rbx, (%rax)
	movq	camlComprehensive__24@GOTPCREL(%rip), %rbx
	movq	%rbx, 8(%rax)
	movq	%r14, %rsp
	popq	%r14
	ret
.L187:
	movq	camlComprehensive@GOTPCREL(%rip), %rax
	movq	56(%rax), %rax
	mov	(%rax), %rbx	# func1c
	movq	(%rax), %rax
	cmpq	%rax, %rbx
	je	.L186
	call	caml_alloc2@PLT
.L206:
	leaq	8(%r15), %rax
	movq	$2048, -8(%rax)
	movq	caml_exn_Assert_failure@GOTPCREL(%rip), %rbx
	movq	%rbx, (%rax)
	movq	camlComprehensive__26@GOTPCREL(%rip), %rbx
	movq	%rbx, 8(%rax)
	movq	%r14, %rsp
	popq	%r14
	ret
.L186:
	movq	camlComprehensive@GOTPCREL(%rip), %rax
	movq	64(%rax), %rax
	mov	(%rax), %rbx	# func1d
	movq	(%rax), %rax
	movslq	8(%rax), %rax
	movslq	8(%rbx), %rbx
	cmpq	%rax, %rbx
	je	.L185
	call	caml_alloc2@PLT
.L207:
	leaq	8(%r15), %rax
	movq	$2048, -8(%rax)
	movq	caml_exn_Assert_failure@GOTPCREL(%rip), %rbx
	movq	%rbx, (%rax)
	movq	camlComprehensive__28@GOTPCREL(%rip), %rbx
	movq	%rbx, 8(%rax)
	movq	%r14, %rsp
	popq	%r14
	ret
.L185:
	movq	camlComprehensive@GOTPCREL(%rip), %rax
	movq	72(%rax), %rax
	mov	(%rax), %rbx	# func1e
	movq	(%rax), %rax
	movq	8(%rax), %rax
	movq	8(%rbx), %rbx
	cmpq	%rax, %rbx
	je	.L184
	call	caml_alloc2@PLT
.L208:
	leaq	8(%r15), %rax
	movq	$2048, -8(%rax)
	movq	caml_exn_Assert_failure@GOTPCREL(%rip), %rbx
	movq	%rbx, (%rax)
	movq	camlComprehensive__30@GOTPCREL(%rip), %rbx
	movq	%rbx, 8(%rax)
	movq	%r14, %rsp
	popq	%r14
	ret
.L184:
	movq	camlComprehensive@GOTPCREL(%rip), %rax
	movq	80(%rax), %rax
	mov	(%rax), %rbx	# func1f
	movq	(%rax), %rax
	movq	8(%rax), %rax
	movq	8(%rbx), %rbx
	cmpq	%rax, %rbx
	je	.L183
	call	caml_alloc2@PLT
.L209:
	leaq	8(%r15), %rax
	movq	$2048, -8(%rax)
	movq	caml_exn_Assert_failure@GOTPCREL(%rip), %rbx
	movq	%rbx, (%rax)
	movq	camlComprehensive__32@GOTPCREL(%rip), %rbx
	movq	%rbx, 8(%rax)
	movq	%r14, %rsp
	popq	%r14
	ret
.L183:
	movq	camlComprehensive@GOTPCREL(%rip), %rax
	movq	88(%rax), %rax
	mov	(%rax), %rdi	# func1g
	movq	(%rax), %rsi
	movq	caml_equal@GOTPCREL(%rip), %rax
	call	caml_c_call@PLT
.L210:
	movq	caml_young_ptr@GOTPCREL(%rip), %r11
	movq	(%r11), %r15
	cmpq	$1, %rax
	jne	.L182
	call	caml_alloc2@PLT
.L211:
	leaq	8(%r15), %rax
	movq	$2048, -8(%rax)
	movq	caml_exn_Assert_failure@GOTPCREL(%rip), %rbx
	movq	%rbx, (%rax)
	movq	camlComprehensive__34@GOTPCREL(%rip), %rbx
	movq	%rbx, 8(%rax)
	movq	%r14, %rsp
	popq	%r14
	ret
.L182:
	movq	camlComprehensive@GOTPCREL(%rip), %rax
	movq	48(%rax), %rbx
	movq	camlComprehensive__1@GOTPCREL(%rip), %rdi
	mov	%rdi, (%rbx)	# func2a
	movsd	.L212(%rip), %xmm0
	movq	48(%rax), %rax
	movq	(%rax), %rax
	movsd	(%rax), %xmm1
	ucomisd	%xmm0, %xmm1
	jp	.L213
	je	.L181
.L213:
	call	caml_alloc2@PLT
.L214:
	leaq	8(%r15), %rax
	movq	$2048, -8(%rax)
	movq	caml_exn_Assert_failure@GOTPCREL(%rip), %rbx
	movq	%rbx, (%rax)
	movq	camlComprehensive__36@GOTPCREL(%rip), %rbx
	movq	%rbx, 8(%rax)
	movq	%r14, %rsp
	popq	%r14
	ret
.L181:
	movq	camlComprehensive@GOTPCREL(%rip), %rax
	movq	56(%rax), %rbx
	movq	$11, %rdi
	mov	%rdi, (%rbx)	# func2a
	movq	56(%rax), %rax
	movq	(%rax), %rax
	cmpq	$11, %rax
	je	.L180
	call	caml_alloc2@PLT
.L215:
	leaq	8(%r15), %rax
	movq	$2048, -8(%rax)
	movq	caml_exn_Assert_failure@GOTPCREL(%rip), %rbx
	movq	%rbx, (%rax)
	movq	camlComprehensive__38@GOTPCREL(%rip), %rbx
	movq	%rbx, 8(%rax)
	movq	%r14, %rsp
	popq	%r14
	ret
.L180:
	movq	camlComprehensive@GOTPCREL(%rip), %rax
	movq	64(%rax), %rbx
	movq	camlComprehensive__2@GOTPCREL(%rip), %rdi
	mov	%rdi, (%rbx)	# func2a
	movq	$5, %rbx
	movq	64(%rax), %rax
	movq	(%rax), %rax
	movslq	8(%rax), %rax
	cmpq	%rbx, %rax
	je	.L179
	call	caml_alloc2@PLT
.L216:
	leaq	8(%r15), %rax
	movq	$2048, -8(%rax)
	movq	caml_exn_Assert_failure@GOTPCREL(%rip), %rbx
	movq	%rbx, (%rax)
	movq	camlComprehensive__40@GOTPCREL(%rip), %rbx
	movq	%rbx, 8(%rax)
	movq	%r14, %rsp
	popq	%r14
	ret
.L179:
	movq	camlComprehensive@GOTPCREL(%rip), %rax
	movq	72(%rax), %rbx
	movq	camlComprehensive__3@GOTPCREL(%rip), %rdi
	mov	%rdi, (%rbx)	# func2a
	movq	$5, %rbx
	movq	72(%rax), %rax
	movq	(%rax), %rax
	movq	8(%rax), %rax
	cmpq	%rbx, %rax
	je	.L178
	call	caml_alloc2@PLT
.L217:
	leaq	8(%r15), %rax
	movq	$2048, -8(%rax)
	movq	caml_exn_Assert_failure@GOTPCREL(%rip), %rbx
	movq	%rbx, (%rax)
	movq	camlComprehensive__42@GOTPCREL(%rip), %rbx
	movq	%rbx, 8(%rax)
	movq	%r14, %rsp
	popq	%r14
	ret
.L178:
	movq	camlComprehensive@GOTPCREL(%rip), %rax
	movq	80(%rax), %rbx
	movq	camlComprehensive__4@GOTPCREL(%rip), %rdi
	mov	%rdi, (%rbx)	# func2a
	movq	$5, %rbx
	movq	80(%rax), %rax
	movq	(%rax), %rax
	movq	8(%rax), %rax
	cmpq	%rbx, %rax
	je	.L177
	call	caml_alloc2@PLT
.L218:
	leaq	8(%r15), %rax
	movq	$2048, -8(%rax)
	movq	caml_exn_Assert_failure@GOTPCREL(%rip), %rbx
	movq	%rbx, (%rax)
	movq	camlComprehensive__44@GOTPCREL(%rip), %rbx
	movq	%rbx, 8(%rax)
	movq	%r14, %rsp
	popq	%r14
	ret
.L177:
	movq	camlComprehensive@GOTPCREL(%rip), %rax
	movq	88(%rax), %rbx
	movq	camlComprehensive__5@GOTPCREL(%rip), %rsi
	mov	%rsi, (%rbx)	# func2a
	movq	88(%rax), %rax
	movq	(%rax), %rdi
	movq	caml_equal@GOTPCREL(%rip), %rax
	call	caml_c_call@PLT
.L219:
	movq	caml_young_ptr@GOTPCREL(%rip), %r11
	movq	(%r11), %r15
	cmpq	$1, %rax
	jne	.L176
	call	caml_alloc2@PLT
.L220:
	leaq	8(%r15), %rax
	movq	$2048, -8(%rax)
	movq	caml_exn_Assert_failure@GOTPCREL(%rip), %rbx
	movq	%rbx, (%rax)
	movq	camlComprehensive__46@GOTPCREL(%rip), %rbx
	movq	%rbx, 8(%rax)
	movq	%r14, %rsp
	popq	%r14
	ret
.L176:
	movq	camlComprehensive__6@GOTPCREL(%rip), %rsi
	movq	camlComprehensive@GOTPCREL(%rip), %rax
	movq	48(%rax), %rdi
	call	caml_modify@PLT
	movq	camlComprehensive@GOTPCREL(%rip), %rax
	movq	56(%rax), %rbx
	movq	$13, (%rbx)
	movq	camlComprehensive__7@GOTPCREL(%rip), %rsi
	movq	64(%rax), %rdi
	call	caml_modify@PLT
	movq	camlComprehensive__8@GOTPCREL(%rip), %rsi
	movq	camlComprehensive@GOTPCREL(%rip), %rax
	movq	72(%rax), %rdi
	call	caml_modify@PLT
	movq	camlComprehensive__9@GOTPCREL(%rip), %rsi
	movq	camlComprehensive@GOTPCREL(%rip), %rax
	movq	80(%rax), %rdi
	call	caml_modify@PLT
	movq	camlComprehensive__10@GOTPCREL(%rip), %rsi
	movq	camlComprehensive@GOTPCREL(%rip), %rax
	movq	88(%rax), %rdi
	call	caml_modify@PLT
	movq	camlComprehensive@GOTPCREL(%rip), %rax
	movq	48(%rax), %rbx
	movq	camlComprehensive__1@GOTPCREL(%rip), %rdi
	mov	%rdi, (%rbx)	# func2a
	movsd	.L212(%rip), %xmm0
	movq	48(%rax), %rax
	movq	(%rax), %rax
	movsd	(%rax), %xmm1
	ucomisd	%xmm0, %xmm1
	jp	.L221
	je	.L175
.L221:
	call	caml_alloc2@PLT
.L222:
	leaq	8(%r15), %rax
	movq	$2048, -8(%rax)
	movq	caml_exn_Assert_failure@GOTPCREL(%rip), %rbx
	movq	%rbx, (%rax)
	movq	camlComprehensive__48@GOTPCREL(%rip), %rbx
	movq	%rbx, 8(%rax)
	movq	%r14, %rsp
	popq	%r14
	ret
.L175:
	movq	camlComprehensive@GOTPCREL(%rip), %rax
	movq	56(%rax), %rbx
	movq	$11, %rdi
	mov	%rdi, (%rbx)	# func2a
	movq	56(%rax), %rax
	movq	(%rax), %rax
	cmpq	$11, %rax
	je	.L174
	call	caml_alloc2@PLT
.L223:
	leaq	8(%r15), %rax
	movq	$2048, -8(%rax)
	movq	caml_exn_Assert_failure@GOTPCREL(%rip), %rbx
	movq	%rbx, (%rax)
	movq	camlComprehensive__50@GOTPCREL(%rip), %rbx
	movq	%rbx, 8(%rax)
	movq	%r14, %rsp
	popq	%r14
	ret
.L174:
	movq	camlComprehensive@GOTPCREL(%rip), %rax
	movq	64(%rax), %rbx
	movq	camlComprehensive__2@GOTPCREL(%rip), %rdi
	mov	%rdi, (%rbx)	# func2a
	movq	$5, %rbx
	movq	64(%rax), %rax
	movq	(%rax), %rax
	movslq	8(%rax), %rax
	cmpq	%rbx, %rax
	je	.L173
	call	caml_alloc2@PLT
.L224:
	leaq	8(%r15), %rax
	movq	$2048, -8(%rax)
	movq	caml_exn_Assert_failure@GOTPCREL(%rip), %rbx
	movq	%rbx, (%rax)
	movq	camlComprehensive__52@GOTPCREL(%rip), %rbx
	movq	%rbx, 8(%rax)
	movq	%r14, %rsp
	popq	%r14
	ret
.L173:
	movq	camlComprehensive@GOTPCREL(%rip), %rax
	movq	72(%rax), %rbx
	movq	camlComprehensive__3@GOTPCREL(%rip), %rdi
	mov	%rdi, (%rbx)	# func2a
	movq	$5, %rbx
	movq	72(%rax), %rax
	movq	(%rax), %rax
	movq	8(%rax), %rax
	cmpq	%rbx, %rax
	je	.L172
	call	caml_alloc2@PLT
.L225:
	leaq	8(%r15), %rax
	movq	$2048, -8(%rax)
	movq	caml_exn_Assert_failure@GOTPCREL(%rip), %rbx
	movq	%rbx, (%rax)
	movq	camlComprehensive__54@GOTPCREL(%rip), %rbx
	movq	%rbx, 8(%rax)
	movq	%r14, %rsp
	popq	%r14
	ret
.L172:
	movq	camlComprehensive@GOTPCREL(%rip), %rax
	movq	80(%rax), %rbx
	movq	camlComprehensive__4@GOTPCREL(%rip), %rdi
	mov	%rdi, (%rbx)	# func2a
	movq	$5, %rbx
	movq	80(%rax), %rax
	movq	(%rax), %rax
	movq	8(%rax), %rax
	cmpq	%rbx, %rax
	je	.L171
	call	caml_alloc2@PLT
.L226:
	leaq	8(%r15), %rax
	movq	$2048, -8(%rax)
	movq	caml_exn_Assert_failure@GOTPCREL(%rip), %rbx
	movq	%rbx, (%rax)
	movq	camlComprehensive__56@GOTPCREL(%rip), %rbx
	movq	%rbx, 8(%rax)
	movq	%r14, %rsp
	popq	%r14
	ret
.L171:
	movq	camlComprehensive@GOTPCREL(%rip), %rax
	movq	88(%rax), %rbx
	movq	camlComprehensive__5@GOTPCREL(%rip), %rsi
	mov	%rsi, (%rbx)	# func2a
	movq	88(%rax), %rax
	movq	(%rax), %rdi
	movq	caml_equal@GOTPCREL(%rip), %rax
	call	caml_c_call@PLT
.L227:
	movq	caml_young_ptr@GOTPCREL(%rip), %r11
	movq	(%r11), %r15
	cmpq	$1, %rax
	jne	.L170
	call	caml_alloc2@PLT
.L228:
	leaq	8(%r15), %rax
	movq	$2048, -8(%rax)
	movq	caml_exn_Assert_failure@GOTPCREL(%rip), %rbx
	movq	%rbx, (%rax)
	movq	camlComprehensive__58@GOTPCREL(%rip), %rbx
	movq	%rbx, 8(%rax)
	movq	%r14, %rsp
	popq	%r14
	ret
.L170:
	movq	camlComprehensive__6@GOTPCREL(%rip), %rsi
	movq	camlComprehensive@GOTPCREL(%rip), %rax
	movq	48(%rax), %rdi
	call	caml_modify@PLT
	movq	camlComprehensive@GOTPCREL(%rip), %rax
	movq	56(%rax), %rbx
	movq	$13, (%rbx)
	movq	camlComprehensive__7@GOTPCREL(%rip), %rsi
	movq	64(%rax), %rdi
	call	caml_modify@PLT
	movq	camlComprehensive__8@GOTPCREL(%rip), %rsi
	movq	camlComprehensive@GOTPCREL(%rip), %rax
	movq	72(%rax), %rdi
	call	caml_modify@PLT
	movq	camlComprehensive__9@GOTPCREL(%rip), %rsi
	movq	camlComprehensive@GOTPCREL(%rip), %rax
	movq	80(%rax), %rdi
	call	caml_modify@PLT
	movq	camlComprehensive__10@GOTPCREL(%rip), %rsi
	movq	camlComprehensive@GOTPCREL(%rip), %rax
	movq	88(%rax), %rdi
	call	caml_modify@PLT
	movq	camlComprehensive__1@GOTPCREL(%rip), %rax
	mov	%rax, %rax	# func3a
	movsd	.L212(%rip), %xmm0
	movsd	(%rax), %xmm1
	ucomisd	%xmm0, %xmm1
	jp	.L229
	je	.L169
.L229:
	call	caml_alloc2@PLT
.L230:
	leaq	8(%r15), %rax
	movq	$2048, -8(%rax)
	movq	caml_exn_Assert_failure@GOTPCREL(%rip), %rbx
	movq	%rbx, (%rax)
	movq	camlComprehensive__60@GOTPCREL(%rip), %rbx
	movq	%rbx, 8(%rax)
	movq	%r14, %rsp
	popq	%r14
	ret
.L169:
	movq	$11, %rax
	mov	%rax, %rax	# func3a
	cmpq	$11, %rax
	je	.L168
	call	caml_alloc2@PLT
.L231:
	leaq	8(%r15), %rax
	movq	$2048, -8(%rax)
	movq	caml_exn_Assert_failure@GOTPCREL(%rip), %rbx
	movq	%rbx, (%rax)
	movq	camlComprehensive__62@GOTPCREL(%rip), %rbx
	movq	%rbx, 8(%rax)
	movq	%r14, %rsp
	popq	%r14
	ret
.L168:
	movq	camlComprehensive__2@GOTPCREL(%rip), %rax
	mov	%rax, %rax	# func3a
	movq	$5, %rbx
	movslq	8(%rax), %rax
	cmpq	%rbx, %rax
	je	.L167
	call	caml_alloc2@PLT
.L232:
	leaq	8(%r15), %rax
	movq	$2048, -8(%rax)
	movq	caml_exn_Assert_failure@GOTPCREL(%rip), %rbx
	movq	%rbx, (%rax)
	movq	camlComprehensive__64@GOTPCREL(%rip), %rbx
	movq	%rbx, 8(%rax)
	movq	%r14, %rsp
	popq	%r14
	ret
.L167:
	movq	camlComprehensive__3@GOTPCREL(%rip), %rax
	mov	%rax, %rax	# func3a
	movq	$5, %rbx
	movq	8(%rax), %rax
	cmpq	%rbx, %rax
	je	.L166
	call	caml_alloc2@PLT
.L233:
	leaq	8(%r15), %rax
	movq	$2048, -8(%rax)
	movq	caml_exn_Assert_failure@GOTPCREL(%rip), %rbx
	movq	%rbx, (%rax)
	movq	camlComprehensive__66@GOTPCREL(%rip), %rbx
	movq	%rbx, 8(%rax)
	movq	%r14, %rsp
	popq	%r14
	ret
.L166:
	movq	camlComprehensive__4@GOTPCREL(%rip), %rax
	mov	%rax, %rax	# func3a
	movq	$5, %rbx
	movq	8(%rax), %rax
	cmpq	%rbx, %rax
	je	.L165
	call	caml_alloc2@PLT
.L234:
	leaq	8(%r15), %rax
	movq	$2048, -8(%rax)
	movq	caml_exn_Assert_failure@GOTPCREL(%rip), %rbx
	movq	%rbx, (%rax)
	movq	camlComprehensive__68@GOTPCREL(%rip), %rbx
	movq	%rbx, 8(%rax)
	movq	%r14, %rsp
	popq	%r14
	ret
.L165:
	movq	camlComprehensive__5@GOTPCREL(%rip), %rsi
	mov	%rsi, %rdi	# func3a
	movq	caml_equal@GOTPCREL(%rip), %rax
	call	caml_c_call@PLT
.L235:
	movq	caml_young_ptr@GOTPCREL(%rip), %r11
	movq	(%r11), %r15
	cmpq	$1, %rax
	jne	.L164
	call	caml_alloc2@PLT
.L236:
	leaq	8(%r15), %rax
	movq	$2048, -8(%rax)
	movq	caml_exn_Assert_failure@GOTPCREL(%rip), %rbx
	movq	%rbx, (%rax)
	movq	camlComprehensive__70@GOTPCREL(%rip), %rbx
	movq	%rbx, 8(%rax)
	movq	%r14, %rsp
	popq	%r14
	ret
.L164:
	movsd	.L212(%rip), %xmm0
	movq	%xmm0, %rax
	mov	%rax, %rbx	# func3b
	movq	%rbx, %xmm0
	movq	%rax, %xmm1
	ucomisd	%xmm1, %xmm0
	jp	.L237
	je	.L163
.L237:
	call	caml_alloc2@PLT
.L238:
	leaq	8(%r15), %rax
	movq	$2048, -8(%rax)
	movq	caml_exn_Assert_failure@GOTPCREL(%rip), %rbx
	movq	%rbx, (%rax)
	movq	camlComprehensive__72@GOTPCREL(%rip), %rbx
	movq	%rbx, 8(%rax)
	movq	%r14, %rsp
	popq	%r14
	ret
.L163:
	movq	$11, %rax
	mov	%rax, %rax	# func3c
	cmpq	$11, %rax
	je	.L162
	call	caml_alloc2@PLT
.L239:
	leaq	8(%r15), %rax
	movq	$2048, -8(%rax)
	movq	caml_exn_Assert_failure@GOTPCREL(%rip), %rbx
	movq	%rbx, (%rax)
	movq	camlComprehensive__74@GOTPCREL(%rip), %rbx
	movq	%rbx, 8(%rax)
	movq	%r14, %rsp
	popq	%r14
	ret
.L162:
	movq	$5, %rax
	mov	%rax, %rax	# func3d
	salq	$32, %rax
	sarq	$32, %rax
	movq	$5, %rbx
	cmpq	%rbx, %rax
	je	.L161
	call	caml_alloc2@PLT
.L240:
	leaq	8(%r15), %rax
	movq	$2048, -8(%rax)
	movq	caml_exn_Assert_failure@GOTPCREL(%rip), %rbx
	movq	%rbx, (%rax)
	movq	camlComprehensive__76@GOTPCREL(%rip), %rbx
	movq	%rbx, 8(%rax)
	movq	%r14, %rsp
	popq	%r14
	ret
.L161:
	movq	$5, %rax
	mov	%rax, %rax	# func3e
	movq	$5, %rbx
	cmpq	%rbx, %rax
	je	.L160
	call	caml_alloc2@PLT
.L241:
	leaq	8(%r15), %rax
	movq	$2048, -8(%rax)
	movq	caml_exn_Assert_failure@GOTPCREL(%rip), %rbx
	movq	%rbx, (%rax)
	movq	camlComprehensive__78@GOTPCREL(%rip), %rbx
	movq	%rbx, 8(%rax)
	movq	%r14, %rsp
	popq	%r14
	ret
.L160:
	movq	$5, %rax
	mov	%rax, %rax	# func3f
	movq	$5, %rbx
	cmpq	%rbx, %rax
	je	.L159
	call	caml_alloc2@PLT
.L242:
	leaq	8(%r15), %rax
	movq	$2048, -8(%rax)
	movq	caml_exn_Assert_failure@GOTPCREL(%rip), %rbx
	movq	%rbx, (%rax)
	movq	camlComprehensive__80@GOTPCREL(%rip), %rbx
	movq	%rbx, 8(%rax)
	movq	%r14, %rsp
	popq	%r14
	ret
.L159:
	movq	camlComprehensive__5@GOTPCREL(%rip), %rsi
	mov	%rsi, %rdi	# func3g
	movq	caml_equal@GOTPCREL(%rip), %rax
	call	caml_c_call@PLT
.L243:
	movq	caml_young_ptr@GOTPCREL(%rip), %r11
	movq	(%r11), %r15
	cmpq	$1, %rax
	jne	.L158
	call	caml_alloc2@PLT
.L244:
	leaq	8(%r15), %rax
	movq	$2048, -8(%rax)
	movq	caml_exn_Assert_failure@GOTPCREL(%rip), %rbx
	movq	%rbx, (%rax)
	movq	camlComprehensive__82@GOTPCREL(%rip), %rbx
	movq	%rbx, 8(%rax)
	movq	%r14, %rsp
	popq	%r14
	ret
.L158:
	movq	camlComprehensive@GOTPCREL(%rip), %rax
	movq	56(%rax), %rax
	movq	(%rax), %rax
	add	$0x2, %rax	# func4a
	cmpq	$15, %rax
	je	.L157
	call	caml_alloc2@PLT
.L245:
	leaq	8(%r15), %rax
	movq	$2048, -8(%rax)
	movq	caml_exn_Assert_failure@GOTPCREL(%rip), %rbx
	movq	%rbx, (%rax)
	movq	camlComprehensive__84@GOTPCREL(%rip), %rbx
	movq	%rbx, 8(%rax)
	movq	%r14, %rsp
	popq	%r14
	ret
.L157:
	movq	$6, %rax
	add	$0x1, %rax	# func4b
	movq	$6, %rax
	add	$0x1, %rax	# func4c
	movq	$6, %rax
	add	$0x1, %rax	# func4d
	movq	camlComprehensive@GOTPCREL(%rip), %rax
	movq	56(%rax), %rax
	movq	(%rax), %rax
	mov	$0x2, %rbx	# func5a
	add	%rax, %rbx
	cmpq	$15, %rbx
	je	.L156
	call	caml_alloc2@PLT
.L246:
	leaq	8(%r15), %rax
	movq	$2048, -8(%rax)
	movq	caml_exn_Assert_failure@GOTPCREL(%rip), %rbx
	movq	%rbx, (%rax)
	movq	camlComprehensive__89@GOTPCREL(%rip), %rbx
	movq	%rbx, 8(%rax)
	movq	%r14, %rsp
	popq	%r14
	ret
.L156:
	movq	camlComprehensive@GOTPCREL(%rip), %rax
	movq	56(%rax), %rax
	movq	(%rax), %rax
	mov	$0x2, %rax	# func6a
	add	%rax, %rax
	cmpq	$15, %rax
	jne	.L155
	call	caml_alloc2@PLT
.L247:
	leaq	8(%r15), %rax
	movq	$2048, -8(%rax)
	movq	caml_exn_Assert_failure@GOTPCREL(%rip), %rbx
	movq	%rbx, (%rax)
	movq	camlComprehensive__91@GOTPCREL(%rip), %rbx
	movq	%rbx, 8(%rax)
	movq	%r14, %rsp
	popq	%r14
	ret
.L155:
	movq	camlComprehensive@GOTPCREL(%rip), %rax
	movq	56(%rax), %rax
	movq	(%rax), %rax
	add	%rax, %rax	# func7a
	decq	%rax
	mov	%rax, %rax
	cmpq	$25, %rax
	je	.L154
	call	caml_alloc2@PLT
.L248:
	leaq	8(%r15), %rax
	movq	$2048, -8(%rax)
	movq	caml_exn_Assert_failure@GOTPCREL(%rip), %rbx
	movq	%rbx, (%rax)
	movq	camlComprehensive__93@GOTPCREL(%rip), %rbx
	movq	%rbx, 8(%rax)
	movq	%r14, %rsp
	popq	%r14
	ret
.L154:
	movq	camlComprehensive@GOTPCREL(%rip), %rax
	movq	56(%rax), %rax
	movq	(%rax), %rax
	movq	$11, %rbx
	add	%rax, %rbx	# func8a
	decq	%rbx
	cmpq	$23, %rbx
	je	.L153
	call	caml_alloc2@PLT
.L249:
	leaq	8(%r15), %rax
	movq	$2048, -8(%rax)
	movq	caml_exn_Assert_failure@GOTPCREL(%rip), %rbx
	movq	%rbx, (%rax)
	movq	camlComprehensive__95@GOTPCREL(%rip), %rbx
	movq	%rbx, 8(%rax)
	movq	%r14, %rsp
	popq	%r14
	ret
.L153:
	movq	camlComprehensive@GOTPCREL(%rip), %rax
	movq	56(%rax), %rax
	mov	(%rax), %rax	# func9a
	cmpq	$13, %rax
	je	.L152
	call	caml_alloc2@PLT
.L250:
	leaq	8(%r15), %rax
	movq	$2048, -8(%rax)
	movq	caml_exn_Assert_failure@GOTPCREL(%rip), %rbx
	movq	%rbx, (%rax)
	movq	camlComprehensive__97@GOTPCREL(%rip), %rbx
	movq	%rbx, 8(%rax)
	movq	%r14, %rsp
	popq	%r14
	ret
.L152:
	movq	camlComprehensive@GOTPCREL(%rip), %rax
	movq	56(%rax), %rax
	movq	(%rax), %rax
	inc	%eax	# func10a
	inc	%eax
	cmpq	$15, %rax
	je	.L151
	call	caml_alloc2@PLT
.L251:
	leaq	8(%r15), %rax
	movq	$2048, -8(%rax)
	movq	caml_exn_Assert_failure@GOTPCREL(%rip), %rbx
	movq	%rbx, (%rax)
	movq	camlComprehensive__99@GOTPCREL(%rip), %rbx
	movq	%rbx, 8(%rax)
	movq	%r14, %rsp
	popq	%r14
	ret
.L151:
	movq	camlComprehensive@GOTPCREL(%rip), %rax
	movq	56(%rax), %rax
	movq	(%rax), %rdx
	movq	$11, %rax
	add	%rax, %rdx	# func11a
	decq	%rdx
	cmpq	$23, %rdx
	je	.L150
	call	caml_alloc2@PLT
.L252:
	leaq	8(%r15), %rax
	movq	$2048, -8(%rax)
	movq	caml_exn_Assert_failure@GOTPCREL(%rip), %rbx
	movq	%rbx, (%rax)
	movq	camlComprehensive__101@GOTPCREL(%rip), %rbx
	movq	%rbx, 8(%rax)
	movq	%r14, %rsp
	popq	%r14
	ret
.L150:
	movq	camlComprehensive@GOTPCREL(%rip), %rax
	movq	56(%rax), %rax
	movq	(%rax), %rbx
	movq	%rbx, %rax
	sar	$1, %rbx	# func12a
	xorq	$1, %rax
	mul	%rbx
	orq	$1, %rax
	shl	$1, %rdx
	orq	$1, %rdx
	cmpq	$73, %rax
	je	.L149
	call	caml_alloc2@PLT
.L253:
	leaq	8(%r15), %rax
	movq	$2048, -8(%rax)
	movq	caml_exn_Assert_failure@GOTPCREL(%rip), %rbx
	movq	%rbx, (%rax)
	movq	camlComprehensive__103@GOTPCREL(%rip), %rbx
	movq	%rbx, 8(%rax)
	movq	%r14, %rsp
	popq	%r14
	ret
.L149:
	cmpq	$1, %rdx
	je	.L148
	call	caml_alloc2@PLT
.L254:
	leaq	8(%r15), %rax
	movq	$2048, -8(%rax)
	movq	caml_exn_Assert_failure@GOTPCREL(%rip), %rbx
	movq	%rbx, (%rax)
	movq	camlComprehensive__105@GOTPCREL(%rip), %rbx
	movq	%rbx, 8(%rax)
	movq	%r14, %rsp
	popq	%r14
	ret
.L148:
	movq	camlComprehensive@GOTPCREL(%rip), %rax
	movq	48(%rax), %rax
	movq	(%rax), %rax
	movsd	.L255(%rip), %xmm0
	addsd	(%rax), %xmm0
	movsd	(%rax), %xmm1
	addsd	%xmm0, %xmm1	# func12b
	movsd	.L256(%rip), %xmm0
	ucomisd	%xmm0, %xmm1
	jp	.L257
	je	.L147
.L257:
	call	caml_alloc2@PLT
.L258:
	leaq	8(%r15), %rax
	movq	$2048, -8(%rax)
	movq	caml_exn_Assert_failure@GOTPCREL(%rip), %rbx
	movq	%rbx, (%rax)
	movq	camlComprehensive__109@GOTPCREL(%rip), %rbx
	movq	%rbx, 8(%rax)
	movq	%r14, %rsp
	popq	%r14
	ret
.L147:
	movq	camlComprehensive@GOTPCREL(%rip), %rax
	movq	48(%rax), %rax
	movq	(%rax), %rax
	movsd	.L255(%rip), %xmm0
	addsd	(%rax), %xmm0
	addsd	(%rax), %xmm0	# func12c
	movsd	.L256(%rip), %xmm1
	ucomisd	%xmm1, %xmm0
	jp	.L259
	je	.L146
.L259:
	call	caml_alloc2@PLT
.L260:
	leaq	8(%r15), %rax
	movq	$2048, -8(%rax)
	movq	caml_exn_Assert_failure@GOTPCREL(%rip), %rbx
	movq	%rbx, (%rax)
	movq	camlComprehensive__111@GOTPCREL(%rip), %rbx
	movq	%rbx, 8(%rax)
	movq	%r14, %rsp
	popq	%r14
	ret
.L146:
	movq	camlComprehensive@GOTPCREL(%rip), %rax
	movq	56(%rax), %rax
	movq	(%rax), %rdi
	movq	%rdi, %rax
	sar	$1, %rdi	# func 13a
	xorq	$1, %rax
	mul	%rdi
	orq	$1, %rax
	shl	$1, %rdx
	orq	$1, %rdx
	cmpq	$73, %rax
	je	.L145
	call	caml_alloc2@PLT
.L261:
	leaq	8(%r15), %rax
	movq	$2048, -8(%rax)
	movq	caml_exn_Assert_failure@GOTPCREL(%rip), %rbx
	movq	%rbx, (%rax)
	movq	camlComprehensive__113@GOTPCREL(%rip), %rbx
	movq	%rbx, 8(%rax)
	movq	%r14, %rsp
	popq	%r14
	ret
.L145:
	cmpq	$1, %rdx
	je	.L144
	call	caml_alloc2@PLT
.L262:
	leaq	8(%r15), %rax
	movq	$2048, -8(%rax)
	movq	caml_exn_Assert_failure@GOTPCREL(%rip), %rbx
	movq	%rbx, (%rax)
	movq	camlComprehensive__115@GOTPCREL(%rip), %rbx
	movq	%rbx, 8(%rax)
	movq	%r14, %rsp
	popq	%r14
	ret
.L144:
	movq	camlComprehensive@GOTPCREL(%rip), %rax
	movq	56(%rax), %rax
	movq	(%rax), %rax
	add	%rax, %rax	# func14a
	decq	%rax
	cmpq	$25, %rax
	je	.L143
	call	caml_alloc2@PLT
.L263:
	leaq	8(%r15), %rax
	movq	$2048, -8(%rax)
	movq	caml_exn_Assert_failure@GOTPCREL(%rip), %rbx
	movq	%rbx, (%rax)
	movq	camlComprehensive__117@GOTPCREL(%rip), %rbx
	movq	%rbx, 8(%rax)
	movq	%r14, %rsp
	popq	%r14
	ret
.L143:
	movq	camlComprehensive@GOTPCREL(%rip), %rax
	movq	56(%rax), %rax
	movq	(%rax), %rbx
	add	(%rax), %rbx	# func14a
	decq	%rbx
	cmpq	$25, %rbx
	je	.L142
	call	caml_alloc2@PLT
.L264:
	leaq	8(%r15), %rax
	movq	$2048, -8(%rax)
	movq	caml_exn_Assert_failure@GOTPCREL(%rip), %rbx
	movq	%rbx, (%rax)
	movq	camlComprehensive__119@GOTPCREL(%rip), %rbx
	movq	%rbx, 8(%rax)
	movq	%r14, %rsp
	popq	%r14
	ret
.L142:
	movq	camlComprehensive@GOTPCREL(%rip), %rax
	movq	56(%rax), %rax
	movq	(%rax), %rax
	add	%rax, %rax	# func15a
	decq	%rax
	cmpq	$25, %rax
	je	.L141
	call	caml_alloc2@PLT
.L265:
	leaq	8(%r15), %rax
	movq	$2048, -8(%rax)
	movq	caml_exn_Assert_failure@GOTPCREL(%rip), %rbx
	movq	%rbx, (%rax)
	movq	camlComprehensive__121@GOTPCREL(%rip), %rbx
	movq	%rbx, 8(%rax)
	movq	%r14, %rsp
	popq	%r14
	ret
.L141:
	movq	camlComprehensive@GOTPCREL(%rip), %rax
	movq	56(%rax), %rax
	movq	(%rax), %rbx
	add	(%rax), %rbx	# func15a
	decq	%rbx
	cmpq	$25, %rbx
	je	.L140
	call	caml_alloc2@PLT
.L266:
	leaq	8(%r15), %rax
	movq	$2048, -8(%rax)
	movq	caml_exn_Assert_failure@GOTPCREL(%rip), %rbx
	movq	%rbx, (%rax)
	movq	camlComprehensive__123@GOTPCREL(%rip), %rbx
	movq	%rbx, 8(%rax)
	movq	%r14, %rsp
	popq	%r14
	ret
.L140:
	movq	camlComprehensive@GOTPCREL(%rip), %rax
	movq	56(%rax), %rax
	movq	(%rax), %rax
	add	$13, %rax	# func15a
	decq	%rax
	cmpq	$25, %rax
	je	.L139
	call	caml_alloc2@PLT
.L267:
	leaq	8(%r15), %rax
	movq	$2048, -8(%rax)
	movq	caml_exn_Assert_failure@GOTPCREL(%rip), %rbx
	movq	%rbx, (%rax)
	movq	camlComprehensive__125@GOTPCREL(%rip), %rbx
	movq	%rbx, 8(%rax)
	movq	%r14, %rsp
	popq	%r14
	ret
.L139:
	movq	camlComprehensive@GOTPCREL(%rip), %rax
	movq	56(%rax), %rax
	movq	(%rax), %rax
	add	$13, %rax	# func16a
	decq	%rax
	cmpq	$25, %rax
	je	.L138
	call	caml_alloc2@PLT
.L268:
	leaq	8(%r15), %rax
	movq	$2048, -8(%rax)
	movq	caml_exn_Assert_failure@GOTPCREL(%rip), %rbx
	movq	%rbx, (%rax)
	movq	camlComprehensive__127@GOTPCREL(%rip), %rbx
	movq	%rbx, 8(%rax)
	movq	%r14, %rsp
	popq	%r14
	ret
.L138:
	movq	$1, %rax
	movq	camlComprehensive@GOTPCREL(%rip), %rbx
	movq	72(%rbx), %rbx
	movq	(%rbx), %rbx
	movq	8(%rbx), %rbx
	addq	%rax, %rbx
	add	$6, %rbx	# func16n
	movq	$13, %rax
	cmpq	%rax, %rbx
	je	.L137
	call	caml_alloc2@PLT
.L269:
	leaq	8(%r15), %rax
	movq	$2048, -8(%rax)
	movq	caml_exn_Assert_failure@GOTPCREL(%rip), %rbx
	movq	%rbx, (%rax)
	movq	camlComprehensive__130@GOTPCREL(%rip), %rbx
	movq	%rbx, 8(%rax)
	movq	%r14, %rsp
	popq	%r14
	ret
.L137:
	movq	camlComprehensive@GOTPCREL(%rip), %rax
	movq	56(%rax), %rax
	movq	(%rax), %rbx
	add	(%rax), %rbx	# func17a
	decq	%rbx
	cmpq	$25, %rbx
	je	.L136
	call	caml_alloc2@PLT
.L270:
	leaq	8(%r15), %rax
	movq	$2048, -8(%rax)
	movq	caml_exn_Assert_failure@GOTPCREL(%rip), %rbx
	movq	%rbx, (%rax)
	movq	camlComprehensive__132@GOTPCREL(%rip), %rbx
	movq	%rbx, 8(%rax)
	movq	%r14, %rsp
	popq	%r14
	ret
.L136:
	movq	camlComprehensive@GOTPCREL(%rip), %rax
	movq	56(%rax), %rax
	movq	(%rax), %rax
	add	%rax, %rax	# func18a
	decq	%rax
	cmpq	$25, %rax
	je	.L135
	call	caml_alloc2@PLT
.L271:
	leaq	8(%r15), %rax
	movq	$2048, -8(%rax)
	movq	caml_exn_Assert_failure@GOTPCREL(%rip), %rbx
	movq	%rbx, (%rax)
	movq	camlComprehensive__134@GOTPCREL(%rip), %rbx
	movq	%rbx, 8(%rax)
	movq	%r14, %rsp
	popq	%r14
	ret
.L135:
	movq	camlComprehensive@GOTPCREL(%rip), %rax
	movq	56(%rax), %rax
	movq	(%rax), %rbx
	add	(%rax), %rbx	# func18a
	decq	%rbx
	cmpq	$25, %rbx
	je	.L134
	call	caml_alloc2@PLT
.L272:
	leaq	8(%r15), %rax
	movq	$2048, -8(%rax)
	movq	caml_exn_Assert_failure@GOTPCREL(%rip), %rbx
	movq	%rbx, (%rax)
	movq	camlComprehensive__136@GOTPCREL(%rip), %rbx
	movq	%rbx, 8(%rax)
	movq	%r14, %rsp
	popq	%r14
	ret
.L134:
	movq	camlComprehensive@GOTPCREL(%rip), %rax
	movq	56(%rax), %rbx
	movq	(%rbx), %rdi
	add	%rdi, (%rbx)	# func18a
	decq	(%rbx)
	movq	56(%rax), %rax
	movq	(%rax), %rax
	cmpq	$25, %rax
	je	.L133
	call	caml_alloc2@PLT
.L273:
	leaq	8(%r15), %rax
	movq	$2048, -8(%rax)
	movq	caml_exn_Assert_failure@GOTPCREL(%rip), %rbx
	movq	%rbx, (%rax)
	movq	camlComprehensive__138@GOTPCREL(%rip), %rbx
	movq	%rbx, 8(%rax)
	movq	%r14, %rsp
	popq	%r14
	ret
.L133:
	movq	camlComprehensive@GOTPCREL(%rip), %rax
	movq	56(%rax), %rbx
	movq	$13, (%rbx)
	movq	56(%rax), %rax
	movq	(%rax), %rbx
	movq	%rbx, %rax
	add	%rbx, %rax	# func20a
	decq	%rax
	cmpq	$25, %rax
	je	.L132
	call	caml_alloc2@PLT
.L274:
	leaq	8(%r15), %rax
	movq	$2048, -8(%rax)
	movq	caml_exn_Assert_failure@GOTPCREL(%rip), %rbx
	movq	%rbx, (%rax)
	movq	camlComprehensive__140@GOTPCREL(%rip), %rbx
	movq	%rbx, 8(%rax)
	movq	%r14, %rsp
	popq	%r14
	ret
.L132:
	movq	camlComprehensive@GOTPCREL(%rip), %rax
	movq	56(%rax), %rax
	movq	(%rax), %rax
	movq	%rax, %rdx
	add	%rdx, %rax	# func20b
	decq	%rax
	cmpq	$25, %rax
	je	.L131
	call	caml_alloc2@PLT
.L275:
	leaq	8(%r15), %rax
	movq	$2048, -8(%rax)
	movq	caml_exn_Assert_failure@GOTPCREL(%rip), %rbx
	movq	%rbx, (%rax)
	movq	camlComprehensive__142@GOTPCREL(%rip), %rbx
	movq	%rbx, 8(%rax)
	movq	%r14, %rsp
	popq	%r14
	ret
.L131:
	movq	camlComprehensive@GOTPCREL(%rip), %rax
	movq	56(%rax), %rax
	movq	(%rax), %rbx
	movq	%rbx, %rax
	add	%rbx, %rax	# func21a
	decq	%rax
	cmpq	$25, %rax
	je	.L130
	call	caml_alloc2@PLT
.L276:
	leaq	8(%r15), %rax
	movq	$2048, -8(%rax)
	movq	caml_exn_Assert_failure@GOTPCREL(%rip), %rbx
	movq	%rbx, (%rax)
	movq	camlComprehensive__144@GOTPCREL(%rip), %rbx
	movq	%rbx, 8(%rax)
	movq	%r14, %rsp
	popq	%r14
	ret
.L130:
	movq	camlComprehensive@GOTPCREL(%rip), %rax
	movq	56(%rax), %rax
	movq	(%rax), %rax
	movq	%rax, %rdx
	add	%rdx, %rax	# func21b
	decq	%rax
	cmpq	$25, %rax
	je	.L129
	call	caml_alloc2@PLT
.L277:
	leaq	8(%r15), %rax
	movq	$2048, -8(%rax)
	movq	caml_exn_Assert_failure@GOTPCREL(%rip), %rbx
	movq	%rbx, (%rax)
	movq	camlComprehensive__146@GOTPCREL(%rip), %rbx
	movq	%rbx, 8(%rax)
	movq	%r14, %rsp
	popq	%r14
	ret
.L129:
	movq	camlComprehensive@GOTPCREL(%rip), %rax
	movq	56(%rax), %rax
	movq	(%rax), %rbx
	movq	%rbx, %rax
	add	%rbx, %rax	# func22a
	decq	%rax
	cmpq	$25, %rax
	je	.L128
	call	caml_alloc2@PLT
.L278:
	leaq	8(%r15), %rax
	movq	$2048, -8(%rax)
	movq	caml_exn_Assert_failure@GOTPCREL(%rip), %rbx
	movq	%rbx, (%rax)
	movq	camlComprehensive__148@GOTPCREL(%rip), %rbx
	movq	%rbx, 8(%rax)
	movq	%r14, %rsp
	popq	%r14
	ret
.L128:
	movq	camlComprehensive@GOTPCREL(%rip), %rax
	movq	56(%rax), %rax
	movq	(%rax), %rax
	movq	%rax, %rdx
	add	%rdx, %rax	# func22b
	decq	%rax
	cmpq	$25, %rax
	je	.L127
	call	caml_alloc2@PLT
.L279:
	leaq	8(%r15), %rax
	movq	$2048, -8(%rax)
	movq	caml_exn_Assert_failure@GOTPCREL(%rip), %rbx
	movq	%rbx, (%rax)
	movq	camlComprehensive__150@GOTPCREL(%rip), %rbx
	movq	%rbx, 8(%rax)
	movq	%r14, %rsp
	popq	%r14
	ret
.L127:
	movq	camlComprehensive@GOTPCREL(%rip), %rax
	movq	56(%rax), %rax
	movq	(%rax), %rbx
	movq	%rbx, %rax
	sar	$1, %rbx	# func23a
	xorq	$1, %rax
	mul	%rbx
	orq	$1, %rax
	shl	$1, %rbx
	orq	$1, %rbx
	cmpq	$73, %rax
	je	.L126
	call	caml_alloc2@PLT
.L280:
	leaq	8(%r15), %rax
	movq	$2048, -8(%rax)
	movq	caml_exn_Assert_failure@GOTPCREL(%rip), %rbx
	movq	%rbx, (%rax)
	movq	camlComprehensive__152@GOTPCREL(%rip), %rbx
	movq	%rbx, 8(%rax)
	movq	%r14, %rsp
	popq	%r14
	ret
.L126:
	movq	camlComprehensive@GOTPCREL(%rip), %rax
	movq	56(%rax), %rax
	movq	(%rax), %rbx
	movq	%rbx, %rax
	mov	%rbx, %rdi	# func24a
	call	foo
        jmp	next
foo:	sar	$1, %rdi
	xorq	$1, %rax
	mul	%rdi
	orq	$1, %rax
	ret
next:	
	cmpq	$73, %rax
	je	.L125
	call	caml_alloc2@PLT
.L281:
	leaq	8(%r15), %rax
	movq	$2048, -8(%rax)
	movq	caml_exn_Assert_failure@GOTPCREL(%rip), %rbx
	movq	%rbx, (%rax)
	movq	camlComprehensive__154@GOTPCREL(%rip), %rbx
	movq	%rbx, 8(%rax)
	movq	%r14, %rsp
	popq	%r14
	ret
.L125:
	movq	camlComprehensive@GOTPCREL(%rip), %rax
	movq	56(%rax), %rax
	movq	(%rax), %rax
	mov	%rax, %rbx	# func25a
	mov	%rax, %rdi
	shr	$10, %rbx
	shl	$10, %rdi
	add	%rax, %rbx
	lea	(%rax, %rdi, 1), %rax
	xor	%rbx, %rax
	orq	$1, %rax
	cmpq	$13313, %rax
	je	.L124
	call	caml_alloc2@PLT
.L282:
	leaq	8(%r15), %rax
	movq	$2048, -8(%rax)
	movq	caml_exn_Assert_failure@GOTPCREL(%rip), %rbx
	movq	%rbx, (%rax)
	movq	camlComprehensive__156@GOTPCREL(%rip), %rbx
	movq	%rbx, 8(%rax)
	movq	%r14, %rsp
	popq	%r14
	ret
.L124:
	movq	$195, %rdx
	xor	%rax, %rax	# func35a
	mov	%dl, %al
	cmpq	$195, %rax
	je	.L123
	call	caml_alloc2@PLT
.L283:
	leaq	8(%r15), %rax
	movq	$2048, -8(%rax)
	movq	caml_exn_Assert_failure@GOTPCREL(%rip), %rbx
	movq	%rbx, (%rax)
	movq	camlComprehensive__158@GOTPCREL(%rip), %rbx
	movq	%rbx, 8(%rax)
	movq	%r14, %rsp
	popq	%r14
	ret
.L123:
	movq	$195, %rdx
	xor	%rax, %rax	# func35b
	mov	%dh, %ah
	cmpq	$195, %rax
	jne	.L122
	call	caml_alloc2@PLT
.L284:
	leaq	8(%r15), %rax
	movq	$2048, -8(%rax)
	movq	caml_exn_Assert_failure@GOTPCREL(%rip), %rbx
	movq	%rbx, (%rax)
	movq	camlComprehensive__160@GOTPCREL(%rip), %rbx
	movq	%rbx, 8(%rax)
	movq	%r14, %rsp
	popq	%r14
	ret
.L122:
	movq	camlComprehensive@GOTPCREL(%rip), %rax
	movq	56(%rax), %rax
	movq	(%rax), %rdi
	movq	%rdi, %rdx
	movq	%rdx, %rbx
	addq	$2, %rbx
	movq	%rdx, %rcx
	addq	$4, %rcx
	addq	$6, %rdx
	movq	%rdi, %rax
	mov	%rax, %rdi	# func36a
	add	%rbx, %rcx
        add	%rdx, %rdi
        add	%rcx, %rdi
	orq	$1, %rdi
	cmpq	$65, %rdi
	je	.L121
	call	caml_alloc2@PLT
.L285:
	leaq	8(%r15), %rax
	movq	$2048, -8(%rax)
	movq	caml_exn_Assert_failure@GOTPCREL(%rip), %rbx
	movq	%rbx, (%rax)
	movq	camlComprehensive__162@GOTPCREL(%rip), %rbx
	movq	%rbx, 8(%rax)
	movq	%r14, %rsp
	popq	%r14
	ret
.L121:
	movq	camlComprehensive@GOTPCREL(%rip), %rax
	movq	56(%rax), %rax
	movq	(%rax), %rsi
	movq	%rsi, %rax
	addq	$2, %rax
	movq	%rsi, %rdi
	movq	%rax, %rsi
	mov	%rdi, %rax	# func37a
	add	%rsi, %rax
        subq	$1, %rax
	cmpq	$27, %rax
	je	.L120
	call	caml_alloc2@PLT
.L286:
	leaq	8(%r15), %rax
	movq	$2048, -8(%rax)
	movq	caml_exn_Assert_failure@GOTPCREL(%rip), %rbx
	movq	%rbx, (%rax)
	movq	camlComprehensive__164@GOTPCREL(%rip), %rbx
	movq	%rbx, 8(%rax)
	movq	%r14, %rsp
	popq	%r14
	ret
.L120:
	movsd	.L287(%rip), %xmm0
	movsd	.L255(%rip), %xmm1
	unpcklpd	%xmm0, %xmm1	# _mm_set_pd
	movsd	.L288(%rip), %xmm0
	movsd	.L289(%rip), %xmm2
	unpcklpd	%xmm0, %xmm2	# _mm_set_pd
	addpd	%xmm1, %xmm2	# func43a
	xorpd	%xmm1, %xmm1	# _mm_cvtsd_f64
	movsd	%xmm2, %xmm1
	ucomisd	%xmm0, %xmm1
	jp	.L290
	je	.L119
.L290:
	call	caml_alloc2@PLT
.L291:
	leaq	8(%r15), %rax
	movq	$2048, -8(%rax)
	movq	caml_exn_Assert_failure@GOTPCREL(%rip), %rbx
	movq	%rbx, (%rax)
	movq	camlComprehensive__169@GOTPCREL(%rip), %rbx
	movq	%rbx, 8(%rax)
	movq	%r14, %rsp
	popq	%r14
	ret
.L119:
	movsd	.L292(%rip), %xmm0
	unpckhpd	%xmm2, %xmm2	# _mm_unpackhi_pd
	xorpd	%xmm1, %xmm1	# _mm_cvtsd_f64
	movsd	%xmm2, %xmm1
	ucomisd	%xmm0, %xmm1
	jp	.L293
	je	.L118
.L293:
	call	caml_alloc2@PLT
.L294:
	leaq	8(%r15), %rax
	movq	$2048, -8(%rax)
	movq	caml_exn_Assert_failure@GOTPCREL(%rip), %rbx
	movq	%rbx, (%rax)
	movq	camlComprehensive__171@GOTPCREL(%rip), %rbx
	movq	%rbx, 8(%rax)
	movq	%r14, %rsp
	popq	%r14
	ret
.L118:
	movq	camlComprehensive__172@GOTPCREL(%rip), %rdi
	movB	$1, (%rdi)	# func55a
	movq	camlComprehensive__173@GOTPCREL(%rip), %rsi
	call	caml_string_equal@PLT
	cmpq	$1, %rax
	jne	.L117
	call	caml_alloc2@PLT
.L295:
	leaq	8(%r15), %rax
	movq	$2048, -8(%rax)
	movq	caml_exn_Assert_failure@GOTPCREL(%rip), %rbx
	movq	%rbx, (%rax)
	movq	camlComprehensive__175@GOTPCREL(%rip), %rbx
	movq	%rbx, 8(%rax)
	movq	%r14, %rsp
	popq	%r14
	ret
.L117:
	movq	camlComprehensive__176@GOTPCREL(%rip), %rdi
	movW	$1, (%rdi)	# func56a
	movq	camlComprehensive__177@GOTPCREL(%rip), %rsi
	call	caml_string_equal@PLT
	cmpq	$1, %rax
	jne	.L116
	call	caml_alloc2@PLT
.L296:
	leaq	8(%r15), %rax
	movq	$2048, -8(%rax)
	movq	caml_exn_Assert_failure@GOTPCREL(%rip), %rbx
	movq	%rbx, (%rax)
	movq	camlComprehensive__179@GOTPCREL(%rip), %rbx
	movq	%rbx, 8(%rax)
	movq	%r14, %rsp
	popq	%r14
	ret
.L116:
	movq	camlComprehensive__180@GOTPCREL(%rip), %rdi
	movL	$1, (%rdi)	# func57a
	movq	camlComprehensive__181@GOTPCREL(%rip), %rsi
	call	caml_string_equal@PLT
	cmpq	$1, %rax
	jne	.L115
	call	caml_alloc2@PLT
.L297:
	leaq	8(%r15), %rax
	movq	$2048, -8(%rax)
	movq	caml_exn_Assert_failure@GOTPCREL(%rip), %rbx
	movq	%rbx, (%rax)
	movq	camlComprehensive__183@GOTPCREL(%rip), %rbx
	movq	%rbx, 8(%rax)
	movq	%r14, %rsp
	popq	%r14
	ret
.L115:
	movq	camlComprehensive__184@GOTPCREL(%rip), %rdi
	movq	$65, %rax
	mov	%al, (%rdi)	# func67a
	movq	camlComprehensive__186@GOTPCREL(%rip), %rsi
	call	caml_string_equal@PLT
	cmpq	$1, %rax
	jne	.L114
	call	caml_alloc2@PLT
.L298:
	leaq	8(%r15), %rax
	movq	$2048, -8(%rax)
	movq	caml_exn_Assert_failure@GOTPCREL(%rip), %rbx
	movq	%rbx, (%rax)
	movq	camlComprehensive__188@GOTPCREL(%rip), %rbx
	movq	%rbx, 8(%rax)
	movq	%r14, %rsp
	popq	%r14
	ret
.L114:
	movq	camlComprehensive__189@GOTPCREL(%rip), %rdi
	movq	$16961, %rax
	mov	%ax, (%rdi)	# func68a
	movq	camlComprehensive__191@GOTPCREL(%rip), %rsi
	call	caml_string_equal@PLT
	cmpq	$1, %rax
	jne	.L113
	call	caml_alloc2@PLT
.L299:
	leaq	8(%r15), %rax
	movq	$2048, -8(%rax)
	movq	caml_exn_Assert_failure@GOTPCREL(%rip), %rbx
	movq	%rbx, (%rax)
	movq	camlComprehensive__193@GOTPCREL(%rip), %rbx
	movq	%rbx, 8(%rax)
	movq	%r14, %rsp
	popq	%r14
	ret
.L113:
	movq	camlComprehensive__194@GOTPCREL(%rip), %rdi
	movq	$1145258561, %rax
	mov	%eax, (%rdi)	# func69a
	movq	camlComprehensive__196@GOTPCREL(%rip), %rsi
	call	caml_string_equal@PLT
	cmpq	$1, %rax
	jne	.L112
	call	caml_alloc2@PLT
.L300:
	leaq	8(%r15), %rax
	movq	$2048, -8(%rax)
	movq	caml_exn_Assert_failure@GOTPCREL(%rip), %rbx
	movq	%rbx, (%rax)
	movq	camlComprehensive__198@GOTPCREL(%rip), %rbx
	movq	%rbx, 8(%rax)
	movq	%r14, %rsp
	popq	%r14
	ret
.L112:
	movq	camlComprehensive__199@GOTPCREL(%rip), %rdi
	movabsq	$5208208757389214273, %rax
	mov	%rax, (%rdi)	# func70a
	movq	camlComprehensive__201@GOTPCREL(%rip), %rsi
	call	caml_string_equal@PLT
	cmpq	$1, %rax
	jne	.L111
	call	caml_alloc2@PLT
.L301:
	leaq	8(%r15), %rax
	movq	$2048, -8(%rax)
	movq	caml_exn_Assert_failure@GOTPCREL(%rip), %rbx
	movq	%rbx, (%rax)
	movq	camlComprehensive__203@GOTPCREL(%rip), %rbx
	movq	%rbx, 8(%rax)
	movq	%r14, %rsp
	popq	%r14
	ret
.L111:
	movq	camlComprehensive__204@GOTPCREL(%rip), %rdi
	movq	$16961, %rax
	mov	%ah, (%rdi)	# func71a
	movq	camlComprehensive__205@GOTPCREL(%rip), %rsi
	call	caml_string_equal@PLT
	cmpq	$1, %rax
	jne	.L110
	call	caml_alloc2@PLT
.L302:
	leaq	8(%r15), %rax
	movq	$2048, -8(%rax)
	movq	caml_exn_Assert_failure@GOTPCREL(%rip), %rbx
	movq	%rbx, (%rax)
	movq	camlComprehensive__207@GOTPCREL(%rip), %rbx
	movq	%rbx, 8(%rax)
	movq	%r14, %rsp
	popq	%r14
	ret
.L110:
	movq	camlComprehensive__215@GOTPCREL(%rip), %rax
	movq	camlComprehensive@GOTPCREL(%rip), %rbx
	movq	%rax, 96(%rbx)
	movq	camlComprehensive__86@GOTPCREL(%rip), %rax
	call	camlComprehensive____cpuid_1388@PLT
.L303:
	xorq	%rbx, %rbx
	movq	$268435456, %rdi
	movq	16(%rax), %rax
	movq	8(%rax), %rax
	andq	%rdi, %rax
	cmpq	%rbx, %rax
	setne	%al
	movzbq	%al, %rax
	leaq	1(%rax,%rax), %rax
	movq	camlComprehensive@GOTPCREL(%rip), %rbx
	movq	%rax, 104(%rbx)
	movq	camlComprehensive__214@GOTPCREL(%rip), %rax
	movq	%rax, 112(%rbx)
	movq	104(%rbx), %rax
	cmpq	$1, %rax
	je	.L109
	movsd	.L287(%rip), %xmm0
	movsd	.L255(%rip), %xmm1
	unpcklpd	%xmm0, %xmm1	# _mm_set_pd
	movq	$48, %rax
	call	caml_allocN@PLT
.L304:
	leaq	8(%r15), %rsi
	movq	$2301, -8(%rsi)
	movupd	%xmm1, (%rsi)
	vmovapd	%ymm1, %ymm0	# func78
	leaq	24(%rsi), %rdi
	movq	$2301, -8(%rdi)
	
	movupd	%xmm0, (%rdi)
	movq	caml_equal@GOTPCREL(%rip), %rax
	call	caml_c_call@PLT
.L305:
	movq	caml_young_ptr@GOTPCREL(%rip), %r11
	movq	(%r11), %r15
	cmpq	$1, %rax
	jne	.L109
	call	caml_alloc2@PLT
.L306:
	leaq	8(%r15), %rax
	movq	$2048, -8(%rax)
	movq	caml_exn_Assert_failure@GOTPCREL(%rip), %rbx
	movq	%rbx, (%rax)
	movq	camlComprehensive__211@GOTPCREL(%rip), %rbx
	movq	%rbx, 8(%rax)
	movq	%r14, %rsp
	popq	%r14
	ret
.L109:
	movq	camlComprehensive@GOTPCREL(%rip), %rax
	movq	104(%rax), %rax
	cmpq	$1, %rax
	je	.L108
	movsd	.L288(%rip), %xmm0
	movsd	.L289(%rip), %xmm1
	unpcklpd	%xmm0, %xmm1	# _mm_set_pd
	
	movsd	.L287(%rip), %xmm0
	movsd	.L255(%rip), %xmm2
	unpcklpd	%xmm0, %xmm2	# _mm_set_pd
	
	vunpcklpd	%ymm2, %ymm1, %ymm0	# _mm256_unpacklo_pd
	movapd	%xmm0, %xmm1	# func79
	movq	$48, %rax
	call	caml_allocN@PLT
.L307:
	leaq	8(%r15), %rsi
	movq	$2301, -8(%rsi)
	movupd	%xmm1, (%rsi)
	leaq	24(%rsi), %rdi
	movq	$2301, -8(%rdi)
	
	movupd	%xmm0, (%rdi)
	movq	caml_equal@GOTPCREL(%rip), %rax
	call	caml_c_call@PLT
.L308:
	movq	caml_young_ptr@GOTPCREL(%rip), %r11
	movq	(%r11), %r15
	cmpq	$1, %rax
	jne	.L108
	call	caml_alloc2@PLT
.L309:
	leaq	8(%r15), %rax
	movq	$2048, -8(%rax)
	movq	caml_exn_Assert_failure@GOTPCREL(%rip), %rbx
	movq	%rbx, (%rax)
	movq	camlComprehensive__213@GOTPCREL(%rip), %rbx
	movq	%rbx, 8(%rax)
	movq	%r14, %rsp
	popq	%r14
	ret
.L108:
	movq	$1, %rax
	addq	$8, %rsp
	.cfi_adjust_cfa_offset -8
	ret
	.cfi_adjust_cfa_offset 8
	.cfi_endproc
	.type camlComprehensive__entry,@function
	.size camlComprehensive__entry,. - camlComprehensive__entry
	.data
	.section .rodata.cst8,"a",@progbits
.L292:
	.quad	0x4018000000000000
.L289:
	.quad	0x4008000000000000
.L288:
	.quad	0x4010000000000000
.L287:
	.quad	0x4000000000000000
.L256:
	.quad	0x402a000000000000
.L255:
	.quad	0x3ff0000000000000
.L212:
	.quad	0x4014000000000000
	.text
	.globl	camlComprehensive__code_end
camlComprehensive__code_end:
	.data
	.globl	camlComprehensive__data_end
camlComprehensive__data_end:
	.long	0
	.globl	camlComprehensive__frametable
camlComprehensive__frametable:
	.quad	100
	.quad	.L309
	.word	16
	.word	0
	.align	8
	.quad	.L308
	.word	16
	.word	0
	.align	8
	.quad	.L307
	.word	16
	.word	0
	.align	8
	.quad	.L306
	.word	16
	.word	0
	.align	8
	.quad	.L305
	.word	16
	.word	0
	.align	8
	.quad	.L304
	.word	16
	.word	0
	.align	8
	.quad	.L303
	.word	16
	.word	0
	.align	8
	.quad	.L302
	.word	16
	.word	0
	.align	8
	.quad	.L301
	.word	16
	.word	0
	.align	8
	.quad	.L300
	.word	16
	.word	0
	.align	8
	.quad	.L299
	.word	16
	.word	0
	.align	8
	.quad	.L298
	.word	16
	.word	0
	.align	8
	.quad	.L297
	.word	16
	.word	0
	.align	8
	.quad	.L296
	.word	16
	.word	0
	.align	8
	.quad	.L295
	.word	16
	.word	0
	.align	8
	.quad	.L294
	.word	16
	.word	0
	.align	8
	.quad	.L291
	.word	16
	.word	0
	.align	8
	.quad	.L286
	.word	16
	.word	0
	.align	8
	.quad	.L285
	.word	16
	.word	0
	.align	8
	.quad	.L284
	.word	16
	.word	0
	.align	8
	.quad	.L283
	.word	16
	.word	0
	.align	8
	.quad	.L282
	.word	16
	.word	0
	.align	8
	.quad	.L281
	.word	16
	.word	0
	.align	8
	.quad	.L280
	.word	16
	.word	0
	.align	8
	.quad	.L279
	.word	16
	.word	0
	.align	8
	.quad	.L278
	.word	16
	.word	0
	.align	8
	.quad	.L277
	.word	16
	.word	0
	.align	8
	.quad	.L276
	.word	16
	.word	0
	.align	8
	.quad	.L275
	.word	16
	.word	0
	.align	8
	.quad	.L274
	.word	16
	.word	0
	.align	8
	.quad	.L273
	.word	16
	.word	0
	.align	8
	.quad	.L272
	.word	16
	.word	0
	.align	8
	.quad	.L271
	.word	16
	.word	0
	.align	8
	.quad	.L270
	.word	16
	.word	0
	.align	8
	.quad	.L269
	.word	16
	.word	0
	.align	8
	.quad	.L268
	.word	16
	.word	0
	.align	8
	.quad	.L267
	.word	16
	.word	0
	.align	8
	.quad	.L266
	.word	16
	.word	0
	.align	8
	.quad	.L265
	.word	16
	.word	0
	.align	8
	.quad	.L264
	.word	16
	.word	0
	.align	8
	.quad	.L263
	.word	16
	.word	0
	.align	8
	.quad	.L262
	.word	16
	.word	0
	.align	8
	.quad	.L261
	.word	16
	.word	0
	.align	8
	.quad	.L260
	.word	16
	.word	0
	.align	8
	.quad	.L258
	.word	16
	.word	0
	.align	8
	.quad	.L254
	.word	16
	.word	0
	.align	8
	.quad	.L253
	.word	16
	.word	0
	.align	8
	.quad	.L252
	.word	16
	.word	0
	.align	8
	.quad	.L251
	.word	16
	.word	0
	.align	8
	.quad	.L250
	.word	16
	.word	0
	.align	8
	.quad	.L249
	.word	16
	.word	0
	.align	8
	.quad	.L248
	.word	16
	.word	0
	.align	8
	.quad	.L247
	.word	16
	.word	0
	.align	8
	.quad	.L246
	.word	16
	.word	0
	.align	8
	.quad	.L245
	.word	16
	.word	0
	.align	8
	.quad	.L244
	.word	16
	.word	0
	.align	8
	.quad	.L243
	.word	16
	.word	0
	.align	8
	.quad	.L242
	.word	16
	.word	0
	.align	8
	.quad	.L241
	.word	16
	.word	0
	.align	8
	.quad	.L240
	.word	16
	.word	0
	.align	8
	.quad	.L239
	.word	16
	.word	0
	.align	8
	.quad	.L238
	.word	16
	.word	0
	.align	8
	.quad	.L236
	.word	16
	.word	0
	.align	8
	.quad	.L235
	.word	16
	.word	0
	.align	8
	.quad	.L234
	.word	16
	.word	0
	.align	8
	.quad	.L233
	.word	16
	.word	0
	.align	8
	.quad	.L232
	.word	16
	.word	0
	.align	8
	.quad	.L231
	.word	16
	.word	0
	.align	8
	.quad	.L230
	.word	16
	.word	0
	.align	8
	.quad	.L228
	.word	16
	.word	0
	.align	8
	.quad	.L227
	.word	16
	.word	0
	.align	8
	.quad	.L226
	.word	16
	.word	0
	.align	8
	.quad	.L225
	.word	16
	.word	0
	.align	8
	.quad	.L224
	.word	16
	.word	0
	.align	8
	.quad	.L223
	.word	16
	.word	0
	.align	8
	.quad	.L222
	.word	16
	.word	0
	.align	8
	.quad	.L220
	.word	16
	.word	0
	.align	8
	.quad	.L219
	.word	16
	.word	0
	.align	8
	.quad	.L218
	.word	16
	.word	0
	.align	8
	.quad	.L217
	.word	16
	.word	0
	.align	8
	.quad	.L216
	.word	16
	.word	0
	.align	8
	.quad	.L215
	.word	16
	.word	0
	.align	8
	.quad	.L214
	.word	16
	.word	0
	.align	8
	.quad	.L211
	.word	16
	.word	0
	.align	8
	.quad	.L210
	.word	16
	.word	0
	.align	8
	.quad	.L209
	.word	16
	.word	0
	.align	8
	.quad	.L208
	.word	16
	.word	0
	.align	8
	.quad	.L207
	.word	16
	.word	0
	.align	8
	.quad	.L206
	.word	16
	.word	0
	.align	8
	.quad	.L205
	.word	16
	.word	0
	.align	8
	.quad	.L203
	.word	16
	.word	0
	.align	8
	.quad	.L202
	.word	16
	.word	0
	.align	8
	.quad	.L201
	.word	16
	.word	0
	.align	8
	.quad	.L200
	.word	16
	.word	0
	.align	8
	.quad	.L199
	.word	16
	.word	0
	.align	8
	.quad	.L198
	.word	16
	.word	0
	.align	8
	.quad	.L197
	.word	16
	.word	0
	.align	8
	.quad	.L195
	.word	16
	.word	0
	.align	8
	.quad	.L107
	.word	16
	.word	4
	.word	7
	.word	5
	.word	3
	.word	9
	.align	8
	.quad	.L103
	.word	16
	.word	0
	.align	8
	.section .note.GNU-stack,"",%progbits
